
kernel:     file format elf64-x86-64


Disassembly of section .text:

ffffffff802000b0 <execveSyscall>:
ffffffff802000b0:	41 57                	push   %r15
ffffffff802000b2:	41 56                	push   %r14
ffffffff802000b4:	41 55                	push   %r13
ffffffff802000b6:	41 54                	push   %r12
ffffffff802000b8:	55                   	push   %rbp
ffffffff802000b9:	53                   	push   %rbx
ffffffff802000ba:	48 81 ec a8 0f 00 00 	sub    $0xfa8,%rsp
ffffffff802000c1:	49 89 fe             	mov    %rdi,%r14
ffffffff802000c4:	48 89 f3             	mov    %rsi,%rbx
ffffffff802000c7:	49 89 f4             	mov    %rsi,%r12
ffffffff802000ca:	b8 00 00 00 00       	mov    $0x0,%eax
ffffffff802000cf:	e8 77 10 00 00       	callq  ffffffff8020114b <kmalloc>
ffffffff802000d4:	48 89 c5             	mov    %rax,%rbp
ffffffff802000d7:	b8 00 00 00 00       	mov    $0x0,%eax
ffffffff802000dc:	e8 6a 10 00 00       	callq  ffffffff8020114b <kmalloc>
ffffffff802000e1:	49 89 c7             	mov    %rax,%r15
ffffffff802000e4:	b8 00 00 00 00       	mov    $0x0,%eax
ffffffff802000e9:	e8 5d 10 00 00       	callq  ffffffff8020114b <kmalloc>
ffffffff802000ee:	49 89 c5             	mov    %rax,%r13
ffffffff802000f1:	49 8d 87 f0 0f 00 00 	lea    0xff0(%r15),%rax
ffffffff802000f8:	48 89 45 10          	mov    %rax,0x10(%rbp)
ffffffff802000fc:	48 89 45 20          	mov    %rax,0x20(%rbp)
ffffffff80200100:	b8 00 00 00 00       	mov    $0x0,%eax
ffffffff80200105:	e8 07 10 00 00       	callq  ffffffff80201111 <setUserSpace>
ffffffff8020010a:	48 89 45 50          	mov    %rax,0x50(%rbp)
ffffffff8020010e:	4c 89 6d 18          	mov    %r13,0x18(%rbp)
ffffffff80200112:	48 8d 05 2f a6 01 00 	lea    0x1a62f(%rip),%rax        # ffffffff8021a748 <current>
ffffffff80200119:	48 8b 10             	mov    (%rax),%rdx
ffffffff8020011c:	48 8b 12             	mov    (%rdx),%rdx
ffffffff8020011f:	48 89 55 00          	mov    %rdx,0x0(%rbp)
ffffffff80200123:	48 8b 00             	mov    (%rax),%rax
ffffffff80200126:	48 8b 40 08          	mov    0x8(%rax),%rax
ffffffff8020012a:	48 89 45 08          	mov    %rax,0x8(%rbp)
ffffffff8020012e:	48 8d 75 58          	lea    0x58(%rbp),%rsi
ffffffff80200132:	4c 89 f7             	mov    %r14,%rdi
ffffffff80200135:	e8 3b 24 00 00       	callq  ffffffff80202575 <strcpy>
ffffffff8020013a:	48 89 e6             	mov    %rsp,%rsi
ffffffff8020013d:	4c 89 f7             	mov    %r14,%rdi
ffffffff80200140:	e8 30 24 00 00       	callq  ffffffff80202575 <strcpy>
ffffffff80200145:	48 85 db             	test   %rbx,%rbx
ffffffff80200148:	0f 84 e3 00 00 00    	je     ffffffff80200231 <execveSyscall+0x181>
ffffffff8020014e:	48 8b 3b             	mov    (%rbx),%rdi
ffffffff80200151:	48 85 ff             	test   %rdi,%rdi
ffffffff80200154:	0f 84 d7 00 00 00    	je     ffffffff80200231 <execveSyscall+0x181>
ffffffff8020015a:	bb 01 00 00 00       	mov    $0x1,%ebx
ffffffff8020015f:	49 89 e5             	mov    %rsp,%r13
ffffffff80200162:	48 63 f3             	movslq %ebx,%rsi
ffffffff80200165:	48 69 f6 90 01 00 00 	imul   $0x190,%rsi,%rsi
ffffffff8020016c:	4c 01 ee             	add    %r13,%rsi
ffffffff8020016f:	e8 01 24 00 00       	callq  ffffffff80202575 <strcpy>
ffffffff80200174:	ff c3                	inc    %ebx
ffffffff80200176:	8d 43 ff             	lea    -0x1(%rbx),%eax
ffffffff80200179:	48 98                	cltq   
ffffffff8020017b:	49 8b 3c c4          	mov    (%r12,%rax,8),%rdi
ffffffff8020017f:	48 85 ff             	test   %rdi,%rdi
ffffffff80200182:	75 de                	jne    ffffffff80200162 <execveSyscall+0xb2>
ffffffff80200184:	48 8b 7d 50          	mov    0x50(%rbp),%rdi
ffffffff80200188:	e8 09 0b 00 00       	callq  ffffffff80200c96 <loadCR3>
ffffffff8020018d:	49 8d 7e 01          	lea    0x1(%r14),%rdi
ffffffff80200191:	48 89 ee             	mov    %rbp,%rsi
ffffffff80200194:	e8 26 28 00 00       	callq  ffffffff802029bf <loadElf>
ffffffff80200199:	48 89 e6             	mov    %rsp,%rsi
ffffffff8020019c:	ba a0 0f 00 00       	mov    $0xfa0,%edx
ffffffff802001a1:	48 bf ec 0f 00 22 22 	movabs $0x22222000fec,%rdi
ffffffff802001a8:	02 00 00 
ffffffff802001ab:	e8 64 24 00 00       	callq  ffffffff80202614 <memcpy>
ffffffff802001b0:	85 db                	test   %ebx,%ebx
ffffffff802001b2:	74 39                	je     ffffffff802001ed <execveSyscall+0x13d>
ffffffff802001b4:	8d 0c dd 00 00 00 00 	lea    0x0(,%rbx,8),%ecx
ffffffff802001bb:	41 89 d8             	mov    %ebx,%r8d
ffffffff802001be:	ba 00 00 00 00       	mov    $0x0,%edx
ffffffff802001c3:	48 be ec 0f 00 22 22 	movabs $0x22222000fec,%rsi
ffffffff802001ca:	02 00 00 
ffffffff802001cd:	48 63 c1             	movslq %ecx,%rax
ffffffff802001d0:	48 89 f7             	mov    %rsi,%rdi
ffffffff802001d3:	48 29 c7             	sub    %rax,%rdi
ffffffff802001d6:	89 d0                	mov    %edx,%eax
ffffffff802001d8:	c1 e0 06             	shl    $0x6,%eax
ffffffff802001db:	48 98                	cltq   
ffffffff802001dd:	48 01 f0             	add    %rsi,%rax
ffffffff802001e0:	48 89 07             	mov    %rax,(%rdi)
ffffffff802001e3:	ff c2                	inc    %edx
ffffffff802001e5:	83 e9 08             	sub    $0x8,%ecx
ffffffff802001e8:	41 39 d0             	cmp    %edx,%r8d
ffffffff802001eb:	75 e0                	jne    ffffffff802001cd <execveSyscall+0x11d>
ffffffff802001ed:	c1 e3 03             	shl    $0x3,%ebx
ffffffff802001f0:	48 63 db             	movslq %ebx,%rbx
ffffffff802001f3:	48 b8 ec 0f 00 22 22 	movabs $0x22222000fec,%rax
ffffffff802001fa:	02 00 00 
ffffffff802001fd:	48 29 d8             	sub    %rbx,%rax
ffffffff80200200:	48 89 45 28          	mov    %rax,0x28(%rbp)
ffffffff80200204:	48 8b 7d 50          	mov    0x50(%rbp),%rdi
ffffffff80200208:	e8 89 0a 00 00       	callq  ffffffff80200c96 <loadCR3>
ffffffff8020020d:	48 8d 05 34 a5 01 00 	lea    0x1a534(%rip),%rax        # ffffffff8021a748 <current>
ffffffff80200214:	48 8b 08             	mov    (%rax),%rcx
ffffffff80200217:	48 8b 91 88 01 00 00 	mov    0x188(%rcx),%rdx
ffffffff8020021e:	eb 03                	jmp    ffffffff80200223 <execveSyscall+0x173>
ffffffff80200220:	48 89 c2             	mov    %rax,%rdx
ffffffff80200223:	48 8b 82 88 01 00 00 	mov    0x188(%rdx),%rax
ffffffff8020022a:	48 39 c1             	cmp    %rax,%rcx
ffffffff8020022d:	75 f1                	jne    ffffffff80200220 <execveSyscall+0x170>
ffffffff8020022f:	eb 36                	jmp    ffffffff80200267 <execveSyscall+0x1b7>
ffffffff80200231:	48 8b 7d 50          	mov    0x50(%rbp),%rdi
ffffffff80200235:	e8 5c 0a 00 00       	callq  ffffffff80200c96 <loadCR3>
ffffffff8020023a:	49 8d 7e 01          	lea    0x1(%r14),%rdi
ffffffff8020023e:	48 89 ee             	mov    %rbp,%rsi
ffffffff80200241:	e8 79 27 00 00       	callq  ffffffff802029bf <loadElf>
ffffffff80200246:	48 89 e6             	mov    %rsp,%rsi
ffffffff80200249:	ba a0 0f 00 00       	mov    $0xfa0,%edx
ffffffff8020024e:	48 bf ec 0f 00 22 22 	movabs $0x22222000fec,%rdi
ffffffff80200255:	02 00 00 
ffffffff80200258:	e8 b7 23 00 00       	callq  ffffffff80202614 <memcpy>
ffffffff8020025d:	bb 01 00 00 00       	mov    $0x1,%ebx
ffffffff80200262:	e9 4d ff ff ff       	jmpq   ffffffff802001b4 <execveSyscall+0x104>
ffffffff80200267:	48 89 aa 88 01 00 00 	mov    %rbp,0x188(%rdx)
ffffffff8020026e:	48 8b 81 88 01 00 00 	mov    0x188(%rcx),%rax
ffffffff80200275:	48 89 85 88 01 00 00 	mov    %rax,0x188(%rbp)
ffffffff8020027c:	48 8d 05 c5 a4 01 00 	lea    0x1a4c5(%rip),%rax        # ffffffff8021a748 <current>
ffffffff80200283:	48 89 28             	mov    %rbp,(%rax)
ffffffff80200286:	48 8d b5 64 01 00 00 	lea    0x164(%rbp),%rsi
ffffffff8020028d:	48 8d 3d 08 3d 00 00 	lea    0x3d08(%rip),%rdi        # ffffffff80203f9c <_x86_64_asm_ltr+0x4>
ffffffff80200294:	e8 dc 22 00 00       	callq  ffffffff80202575 <strcpy>
ffffffff80200299:	48 c7 c3 ff ff ff ff 	mov    $0xffffffffffffffff,%rbx
ffffffff802002a0:	48 89 9d 58 01 00 00 	mov    %rbx,0x158(%rbp)
ffffffff802002a7:	48 8b 7d 10          	mov    0x10(%rbp),%rdi
ffffffff802002ab:	e8 ef 32 00 00       	callq  ffffffff8020359f <set_tss_rsp>
ffffffff802002b0:	48 8b 45 50          	mov    0x50(%rbp),%rax
ffffffff802002b4:	fa                   	cli    
ffffffff802002b5:	0f 22 d8             	mov    %rax,%cr3
ffffffff802002b8:	48 8b 45 10          	mov    0x10(%rbp),%rax
ffffffff802002bc:	48 89 c4             	mov    %rax,%rsp
ffffffff802002bf:	66 b8 23 00          	mov    $0x23,%ax
ffffffff802002c3:	8e d8                	mov    %eax,%ds
ffffffff802002c5:	8e c0                	mov    %eax,%es
ffffffff802002c7:	8e e0                	mov    %eax,%fs
ffffffff802002c9:	8e e8                	mov    %eax,%gs
ffffffff802002cb:	6a 23                	pushq  $0x23
ffffffff802002cd:	48 8b 45 28          	mov    0x28(%rbp),%rax
ffffffff802002d1:	48 89 c0             	mov    %rax,%rax
ffffffff802002d4:	6a 23                	pushq  $0x23
ffffffff802002d6:	50                   	push   %rax
ffffffff802002d7:	9c                   	pushfq 
ffffffff802002d8:	58                   	pop    %rax
ffffffff802002d9:	48 0d 00 02 00 00    	or     $0x200,%rax
ffffffff802002df:	50                   	push   %rax
ffffffff802002e0:	6a 2b                	pushq  $0x2b
ffffffff802002e2:	48 8b 45 30          	mov    0x30(%rbp),%rax
ffffffff802002e6:	50                   	push   %rax
ffffffff802002e7:	48 c7 c7 00 00 00 00 	mov    $0x0,%rdi
ffffffff802002ee:	48 c7 c6 00 00 00 00 	mov    $0x0,%rsi
ffffffff802002f5:	48 cf                	iretq  
ffffffff802002f7:	48 89 d8             	mov    %rbx,%rax
ffffffff802002fa:	48 81 c4 a8 0f 00 00 	add    $0xfa8,%rsp
ffffffff80200301:	5b                   	pop    %rbx
ffffffff80200302:	5d                   	pop    %rbp
ffffffff80200303:	41 5c                	pop    %r12
ffffffff80200305:	41 5d                	pop    %r13
ffffffff80200307:	41 5e                	pop    %r14
ffffffff80200309:	41 5f                	pop    %r15
ffffffff8020030b:	c3                   	retq   

ffffffff8020030c <mallocSyscall>:
ffffffff8020030c:	48 8d 05 35 a4 01 00 	lea    0x1a435(%rip),%rax        # ffffffff8021a748 <current>
ffffffff80200313:	48 8b 00             	mov    (%rax),%rax
ffffffff80200316:	48 8b 50 18          	mov    0x18(%rax),%rdx
ffffffff8020031a:	48 8b 42 20          	mov    0x20(%rdx),%rax
ffffffff8020031e:	48 8d 0c 38          	lea    (%rax,%rdi,1),%rcx
ffffffff80200322:	48 89 4a 20          	mov    %rcx,0x20(%rdx)
ffffffff80200326:	48 01 7a 30          	add    %rdi,0x30(%rdx)
ffffffff8020032a:	c3                   	retq   

ffffffff8020032b <forkSyscall>:
ffffffff8020032b:	41 57                	push   %r15
ffffffff8020032d:	41 56                	push   %r14
ffffffff8020032f:	41 55                	push   %r13
ffffffff80200331:	41 54                	push   %r12
ffffffff80200333:	55                   	push   %rbp
ffffffff80200334:	53                   	push   %rbx
ffffffff80200335:	48 83 ec 38          	sub    $0x38,%rsp
ffffffff80200339:	48 8d 1d 08 a4 01 00 	lea    0x1a408(%rip),%rbx        # ffffffff8021a748 <current>
ffffffff80200340:	4c 8b 33             	mov    (%rbx),%r14
ffffffff80200343:	b8 00 00 00 00       	mov    $0x0,%eax
ffffffff80200348:	e8 fe 0d 00 00       	callq  ffffffff8020114b <kmalloc>
ffffffff8020034d:	49 89 c5             	mov    %rax,%r13
ffffffff80200350:	b8 00 00 00 00       	mov    $0x0,%eax
ffffffff80200355:	e8 ae 2b 00 00       	callq  ffffffff80202f08 <getPID>
ffffffff8020035a:	49 89 45 00          	mov    %rax,0x0(%r13)
ffffffff8020035e:	49 8b 06             	mov    (%r14),%rax
ffffffff80200361:	49 89 45 08          	mov    %rax,0x8(%r13)
ffffffff80200365:	49 c7 45 38 00 00 00 	movq   $0x0,0x38(%r13)
ffffffff8020036c:	00 
ffffffff8020036d:	49 c7 45 40 00 00 00 	movq   $0x0,0x40(%r13)
ffffffff80200374:	00 
ffffffff80200375:	49 c7 45 48 00 00 00 	movq   $0x0,0x48(%r13)
ffffffff8020037c:	00 
ffffffff8020037d:	49 c7 85 58 01 00 00 	movq   $0xffffffffffffffff,0x158(%r13)
ffffffff80200384:	ff ff ff ff 
ffffffff80200388:	49 8d 75 58          	lea    0x58(%r13),%rsi
ffffffff8020038c:	49 8d 7e 58          	lea    0x58(%r14),%rdi
ffffffff80200390:	e8 e0 21 00 00       	callq  ffffffff80202575 <strcpy>
ffffffff80200395:	49 8d b5 64 01 00 00 	lea    0x164(%r13),%rsi
ffffffff8020039c:	49 8d be 64 01 00 00 	lea    0x164(%r14),%rdi
ffffffff802003a3:	e8 cd 21 00 00       	callq  ffffffff80202575 <strcpy>
ffffffff802003a8:	41 c7 85 60 01 00 00 	movl   $0x0,0x160(%r13)
ffffffff802003af:	00 00 00 00 
ffffffff802003b3:	b8 00 00 00 00       	mov    $0x0,%eax
ffffffff802003b8:	e8 e5 22 00 00       	callq  ffffffff802026a2 <allocatePage>
ffffffff802003bd:	49 89 45 50          	mov    %rax,0x50(%r13)
ffffffff802003c1:	41 ff 86 60 01 00 00 	incl   0x160(%r14)
ffffffff802003c8:	48 8b 03             	mov    (%rbx),%rax
ffffffff802003cb:	48 8b 90 88 01 00 00 	mov    0x188(%rax),%rdx
ffffffff802003d2:	4c 89 a8 88 01 00 00 	mov    %r13,0x188(%rax)
ffffffff802003d9:	49 89 95 88 01 00 00 	mov    %rdx,0x188(%r13)
ffffffff802003e0:	b8 00 00 00 00       	mov    $0x0,%eax
ffffffff802003e5:	e8 b5 08 00 00       	callq  ffffffff80200c9f <getCR3>
ffffffff802003ea:	48 0d 00 00 00 80    	or     $0xffffffff80000000,%rax
ffffffff802003f0:	48 89 44 24 10       	mov    %rax,0x10(%rsp)
ffffffff802003f5:	49 8b 45 50          	mov    0x50(%r13),%rax
ffffffff802003f9:	48 0d 00 00 00 80    	or     $0xffffffff80000000,%rax
ffffffff802003ff:	48 89 44 24 18       	mov    %rax,0x18(%rsp)
ffffffff80200404:	48 c7 44 24 08 00 00 	movq   $0x0,0x8(%rsp)
ffffffff8020040b:	00 00 
ffffffff8020040d:	48 8b 44 24 10       	mov    0x10(%rsp),%rax
ffffffff80200412:	48 8b 74 24 08       	mov    0x8(%rsp),%rsi
ffffffff80200417:	48 8b 1c f0          	mov    (%rax,%rsi,8),%rbx
ffffffff8020041b:	f6 c3 01             	test   $0x1,%bl
ffffffff8020041e:	0f 84 e2 00 00 00    	je     ffffffff80200506 <forkSyscall+0x1db>
ffffffff80200424:	ba 56 00 00 00       	mov    $0x56,%edx
ffffffff80200429:	48 8b 7c 24 18       	mov    0x18(%rsp),%rdi
ffffffff8020042e:	e8 70 08 00 00       	callq  ffffffff80200ca3 <pdpeAlloc>
ffffffff80200433:	48 89 44 24 20       	mov    %rax,0x20(%rsp)
ffffffff80200438:	81 e3 00 f0 ff 7f    	and    $0x7ffff000,%ebx
ffffffff8020043e:	48 81 cb 00 00 00 80 	or     $0xffffffff80000000,%rbx
ffffffff80200445:	48 89 5c 24 28       	mov    %rbx,0x28(%rsp)
ffffffff8020044a:	48 c7 04 24 00 00 00 	movq   $0x0,(%rsp)
ffffffff80200451:	00 
ffffffff80200452:	48 8b 44 24 28       	mov    0x28(%rsp),%rax
ffffffff80200457:	48 8b 34 24          	mov    (%rsp),%rsi
ffffffff8020045b:	48 8b 1c f0          	mov    (%rax,%rsi,8),%rbx
ffffffff8020045f:	f6 c3 01             	test   $0x1,%bl
ffffffff80200462:	0f 84 8a 00 00 00    	je     ffffffff802004f2 <forkSyscall+0x1c7>
ffffffff80200468:	ba 56 00 00 00       	mov    $0x56,%edx
ffffffff8020046d:	48 8b 7c 24 20       	mov    0x20(%rsp),%rdi
ffffffff80200472:	e8 a1 08 00 00       	callq  ffffffff80200d18 <pdeAlloc>
ffffffff80200477:	49 89 c7             	mov    %rax,%r15
ffffffff8020047a:	81 e3 00 f0 ff 7f    	and    $0x7ffff000,%ebx
ffffffff80200480:	48 81 cb 00 00 00 80 	or     $0xffffffff80000000,%rbx
ffffffff80200487:	49 89 dc             	mov    %rbx,%r12
ffffffff8020048a:	bd 00 00 00 00       	mov    $0x0,%ebp
ffffffff8020048f:	49 8b 1c ec          	mov    (%r12,%rbp,8),%rbx
ffffffff80200493:	f6 c3 01             	test   $0x1,%bl
ffffffff80200496:	74 4e                	je     ffffffff802004e6 <forkSyscall+0x1bb>
ffffffff80200498:	ba 56 00 00 00       	mov    $0x56,%edx
ffffffff8020049d:	48 89 ee             	mov    %rbp,%rsi
ffffffff802004a0:	4c 89 ff             	mov    %r15,%rdi
ffffffff802004a3:	e8 e5 08 00 00       	callq  ffffffff80200d8d <pteAlloc>
ffffffff802004a8:	81 e3 00 f0 ff 7f    	and    $0x7ffff000,%ebx
ffffffff802004ae:	48 81 cb 00 00 00 80 	or     $0xffffffff80000000,%rbx
ffffffff802004b5:	ba 00 00 00 00       	mov    $0x0,%edx
ffffffff802004ba:	48 8b 0c 13          	mov    (%rbx,%rdx,1),%rcx
ffffffff802004be:	f6 c1 01             	test   $0x1,%cl
ffffffff802004c1:	74 16                	je     ffffffff802004d9 <forkSyscall+0x1ae>
ffffffff802004c3:	48 81 e1 00 f0 ff ff 	and    $0xfffffffffffff000,%rcx
ffffffff802004ca:	48 81 c9 05 01 00 00 	or     $0x105,%rcx
ffffffff802004d1:	48 89 0c 10          	mov    %rcx,(%rax,%rdx,1)
ffffffff802004d5:	48 89 0c 13          	mov    %rcx,(%rbx,%rdx,1)
ffffffff802004d9:	48 83 c2 08          	add    $0x8,%rdx
ffffffff802004dd:	48 81 fa 00 10 00 00 	cmp    $0x1000,%rdx
ffffffff802004e4:	75 d4                	jne    ffffffff802004ba <forkSyscall+0x18f>
ffffffff802004e6:	48 ff c5             	inc    %rbp
ffffffff802004e9:	48 81 fd 00 02 00 00 	cmp    $0x200,%rbp
ffffffff802004f0:	75 9d                	jne    ffffffff8020048f <forkSyscall+0x164>
ffffffff802004f2:	48 ff 04 24          	incq   (%rsp)
ffffffff802004f6:	48 8b 04 24          	mov    (%rsp),%rax
ffffffff802004fa:	48 3d 00 02 00 00    	cmp    $0x200,%rax
ffffffff80200500:	0f 85 4c ff ff ff    	jne    ffffffff80200452 <forkSyscall+0x127>
ffffffff80200506:	48 ff 44 24 08       	incq   0x8(%rsp)
ffffffff8020050b:	48 8b 44 24 08       	mov    0x8(%rsp),%rax
ffffffff80200510:	48 3d fe 01 00 00    	cmp    $0x1fe,%rax
ffffffff80200516:	0f 85 f1 fe ff ff    	jne    ffffffff8020040d <forkSyscall+0xe2>
ffffffff8020051c:	48 8b 74 24 10       	mov    0x10(%rsp),%rsi
ffffffff80200521:	48 8b 86 f8 0f 00 00 	mov    0xff8(%rsi),%rax
ffffffff80200528:	48 8b 7c 24 18       	mov    0x18(%rsp),%rdi
ffffffff8020052d:	48 89 87 f8 0f 00 00 	mov    %rax,0xff8(%rdi)
ffffffff80200534:	48 8b 86 f0 0f 00 00 	mov    0xff0(%rsi),%rax
ffffffff8020053b:	48 89 87 f0 0f 00 00 	mov    %rax,0xff0(%rdi)
ffffffff80200542:	49 8b 7d 50          	mov    0x50(%r13),%rdi
ffffffff80200546:	e8 4b 07 00 00       	callq  ffffffff80200c96 <loadCR3>
ffffffff8020054b:	b8 00 00 00 00       	mov    $0x0,%eax
ffffffff80200550:	49 8b 54 06 68       	mov    0x68(%r14,%rax,1),%rdx
ffffffff80200555:	49 89 54 05 68       	mov    %rdx,0x68(%r13,%rax,1)
ffffffff8020055a:	48 83 c0 08          	add    $0x8,%rax
ffffffff8020055e:	48 3d f0 00 00 00    	cmp    $0xf0,%rax
ffffffff80200564:	75 ea                	jne    ffffffff80200550 <forkSyscall+0x225>
ffffffff80200566:	b8 00 00 00 00       	mov    $0x0,%eax
ffffffff8020056b:	e8 db 0b 00 00       	callq  ffffffff8020114b <kmalloc>
ffffffff80200570:	49 89 45 18          	mov    %rax,0x18(%r13)
ffffffff80200574:	49 8b 76 18          	mov    0x18(%r14),%rsi
ffffffff80200578:	ba 58 00 00 00       	mov    $0x58,%edx
ffffffff8020057d:	48 89 c7             	mov    %rax,%rdi
ffffffff80200580:	e8 8f 20 00 00       	callq  ffffffff80202614 <memcpy>
ffffffff80200585:	49 8b 46 18          	mov    0x18(%r14),%rax
ffffffff80200589:	48 8b 28             	mov    (%rax),%rbp
ffffffff8020058c:	49 8b 45 18          	mov    0x18(%r13),%rax
ffffffff80200590:	48 c7 00 00 00 00 00 	movq   $0x0,(%rax)
ffffffff80200597:	48 85 ed             	test   %rbp,%rbp
ffffffff8020059a:	74 67                	je     ffffffff80200603 <forkSyscall+0x2d8>
ffffffff8020059c:	bb 00 00 00 00       	mov    $0x0,%ebx
ffffffff802005a1:	48 85 db             	test   %rbx,%rbx
ffffffff802005a4:	0f 84 ee 00 00 00    	je     ffffffff80200698 <forkSyscall+0x36d>
ffffffff802005aa:	b8 00 00 00 00       	mov    $0x0,%eax
ffffffff802005af:	e8 97 0b 00 00       	callq  ffffffff8020114b <kmalloc>
ffffffff802005b4:	48 89 c3             	mov    %rax,%rbx
ffffffff802005b7:	ba 38 00 00 00       	mov    $0x38,%edx
ffffffff802005bc:	48 89 ee             	mov    %rbp,%rsi
ffffffff802005bf:	48 89 df             	mov    %rbx,%rdi
ffffffff802005c2:	e8 4d 20 00 00       	callq  ffffffff80202614 <memcpy>
ffffffff802005c7:	48 83 7d 30 00       	cmpq   $0x0,0x30(%rbp)
ffffffff802005cc:	74 1f                	je     ffffffff802005ed <forkSyscall+0x2c2>
ffffffff802005ce:	b8 00 00 00 00       	mov    $0x0,%eax
ffffffff802005d3:	e8 73 0b 00 00       	callq  ffffffff8020114b <kmalloc>
ffffffff802005d8:	48 89 43 30          	mov    %rax,0x30(%rbx)
ffffffff802005dc:	48 8b 75 30          	mov    0x30(%rbp),%rsi
ffffffff802005e0:	ba 20 00 00 00       	mov    $0x20,%edx
ffffffff802005e5:	48 89 c7             	mov    %rax,%rdi
ffffffff802005e8:	e8 27 20 00 00       	callq  ffffffff80202614 <memcpy>
ffffffff802005ed:	48 8b 6d 28          	mov    0x28(%rbp),%rbp
ffffffff802005f1:	48 85 ed             	test   %rbp,%rbp
ffffffff802005f4:	75 ab                	jne    ffffffff802005a1 <forkSyscall+0x276>
ffffffff802005f6:	48 85 db             	test   %rbx,%rbx
ffffffff802005f9:	74 08                	je     ffffffff80200603 <forkSyscall+0x2d8>
ffffffff802005fb:	48 c7 43 28 00 00 00 	movq   $0x0,0x28(%rbx)
ffffffff80200602:	00 
ffffffff80200603:	b8 00 00 00 00       	mov    $0x0,%eax
ffffffff80200608:	e8 3e 0b 00 00       	callq  ffffffff8020114b <kmalloc>
ffffffff8020060d:	48 8d 90 f0 0f 00 00 	lea    0xff0(%rax),%rdx
ffffffff80200614:	49 89 55 10          	mov    %rdx,0x10(%r13)
ffffffff80200618:	49 89 55 20          	mov    %rdx,0x20(%r13)
ffffffff8020061c:	49 8b 76 10          	mov    0x10(%r14),%rsi
ffffffff80200620:	48 81 ee f0 0f 00 00 	sub    $0xff0,%rsi
ffffffff80200627:	ba f0 0f 00 00       	mov    $0xff0,%edx
ffffffff8020062c:	48 89 c7             	mov    %rax,%rdi
ffffffff8020062f:	e8 e0 1f 00 00       	callq  ffffffff80202614 <memcpy>
ffffffff80200634:	48 b8 00 00 00 22 22 	movabs $0x22222000000,%rax
ffffffff8020063b:	02 00 00 
ffffffff8020063e:	49 89 45 28          	mov    %rax,0x28(%r13)
ffffffff80200642:	49 8b 7e 50          	mov    0x50(%r14),%rdi
ffffffff80200646:	e8 4b 06 00 00       	callq  ffffffff80200c96 <loadCR3>
ffffffff8020064b:	b8 00 00 00 00       	mov    $0x0,%eax
ffffffff80200650:	e8 88 38 00 00       	callq  ffffffff80203edd <read_rip>
ffffffff80200655:	48 85 c0             	test   %rax,%rax
ffffffff80200658:	74 04                	je     ffffffff8020065e <forkSyscall+0x333>
ffffffff8020065a:	49 89 45 30          	mov    %rax,0x30(%r13)
ffffffff8020065e:	48 89 e2             	mov    %rsp,%rdx
ffffffff80200661:	48 8d 05 60 6c 00 00 	lea    0x6c60(%rip),%rax        # ffffffff802072c8 <pos>
ffffffff80200668:	48 89 10             	mov    %rdx,(%rax)
ffffffff8020066b:	b8 00 00 00 00       	mov    $0x0,%eax
ffffffff80200670:	48 8d 15 d1 a0 01 00 	lea    0x1a0d1(%rip),%rdx        # ffffffff8021a748 <current>
ffffffff80200677:	4c 3b 32             	cmp    (%rdx),%r14
ffffffff8020067a:	75 35                	jne    ffffffff802006b1 <forkSyscall+0x386>
ffffffff8020067c:	48 8d 05 45 6c 00 00 	lea    0x6c45(%rip),%rax        # ffffffff802072c8 <pos>
ffffffff80200683:	48 8b 00             	mov    (%rax),%rax
ffffffff80200686:	49 03 45 10          	add    0x10(%r13),%rax
ffffffff8020068a:	49 2b 46 10          	sub    0x10(%r14),%rax
ffffffff8020068e:	49 89 45 10          	mov    %rax,0x10(%r13)
ffffffff80200692:	41 8b 45 00          	mov    0x0(%r13),%eax
ffffffff80200696:	eb 19                	jmp    ffffffff802006b1 <forkSyscall+0x386>
ffffffff80200698:	b8 00 00 00 00       	mov    $0x0,%eax
ffffffff8020069d:	e8 a9 0a 00 00       	callq  ffffffff8020114b <kmalloc>
ffffffff802006a2:	48 89 c3             	mov    %rax,%rbx
ffffffff802006a5:	49 8b 45 18          	mov    0x18(%r13),%rax
ffffffff802006a9:	48 89 18             	mov    %rbx,(%rax)
ffffffff802006ac:	e9 06 ff ff ff       	jmpq   ffffffff802005b7 <forkSyscall+0x28c>
ffffffff802006b1:	48 83 c4 38          	add    $0x38,%rsp
ffffffff802006b5:	5b                   	pop    %rbx
ffffffff802006b6:	5d                   	pop    %rbp
ffffffff802006b7:	41 5c                	pop    %r12
ffffffff802006b9:	41 5d                	pop    %r13
ffffffff802006bb:	41 5e                	pop    %r14
ffffffff802006bd:	41 5f                	pop    %r15
ffffffff802006bf:	c3                   	retq   

ffffffff802006c0 <waitpidSyscall>:
ffffffff802006c0:	48 85 ff             	test   %rdi,%rdi
ffffffff802006c3:	74 54                	je     ffffffff80200719 <waitpidSyscall+0x59>
ffffffff802006c5:	48 83 ec 08          	sub    $0x8,%rsp
ffffffff802006c9:	48 8d 05 78 a0 01 00 	lea    0x1a078(%rip),%rax        # ffffffff8021a748 <current>
ffffffff802006d0:	48 8b 30             	mov    (%rax),%rsi
ffffffff802006d3:	48 89 be 58 01 00 00 	mov    %rdi,0x158(%rsi)
ffffffff802006da:	48 8b be 88 01 00 00 	mov    0x188(%rsi),%rdi
ffffffff802006e1:	48 8b 97 88 01 00 00 	mov    0x188(%rdi),%rdx
ffffffff802006e8:	48 89 b7 88 01 00 00 	mov    %rsi,0x188(%rdi)
ffffffff802006ef:	48 89 96 88 01 00 00 	mov    %rdx,0x188(%rsi)
ffffffff802006f6:	48 89 38             	mov    %rdi,(%rax)
ffffffff802006f9:	e8 a1 2a 00 00       	callq  ffffffff8020319f <contextSwitch>
ffffffff802006fe:	48 8d 3d a3 38 00 00 	lea    0x38a3(%rip),%rdi        # ffffffff80203fa8 <_x86_64_asm_ltr+0x10>
ffffffff80200705:	b8 00 00 00 00       	mov    $0x0,%eax
ffffffff8020070a:	e8 01 1b 00 00       	callq  ffffffff80202210 <kprintf>
ffffffff8020070f:	b8 03 00 00 00       	mov    $0x3,%eax
ffffffff80200714:	48 83 c4 08          	add    $0x8,%rsp
ffffffff80200718:	c3                   	retq   
ffffffff80200719:	b8 03 00 00 00       	mov    $0x3,%eax
ffffffff8020071e:	c3                   	retq   

ffffffff8020071f <openSyscall>:
ffffffff8020071f:	41 55                	push   %r13
ffffffff80200721:	41 54                	push   %r12
ffffffff80200723:	55                   	push   %rbp
ffffffff80200724:	53                   	push   %rbx
ffffffff80200725:	48 81 ec 88 00 00 00 	sub    $0x88,%rsp
ffffffff8020072c:	48 89 fd             	mov    %rdi,%rbp
ffffffff8020072f:	48 85 f6             	test   %rsi,%rsi
ffffffff80200732:	0f 85 14 01 00 00    	jne    ffffffff8020084c <openSyscall+0x12d>
ffffffff80200738:	48 8d 05 c1 a1 01 00 	lea    0x1a1c1(%rip),%rax        # ffffffff8021a900 <t_index>
ffffffff8020073f:	83 38 01             	cmpl   $0x1,(%rax)
ffffffff80200742:	0f 8e ce 00 00 00    	jle    ffffffff80200816 <openSyscall+0xf7>
ffffffff80200748:	48 8d 05 91 6b 00 00 	lea    0x6b91(%rip),%rax        # ffffffff802072e0 <root>
ffffffff8020074f:	48 8d 98 80 00 00 00 	lea    0x80(%rax),%rbx
ffffffff80200756:	41 bc 01 00 00 00    	mov    $0x1,%r12d
ffffffff8020075c:	49 89 e5             	mov    %rsp,%r13
ffffffff8020075f:	48 89 e7             	mov    %rsp,%rdi
ffffffff80200762:	b9 10 00 00 00       	mov    $0x10,%ecx
ffffffff80200767:	48 89 de             	mov    %rbx,%rsi
ffffffff8020076a:	f3 48 a5             	rep movsq %ds:(%rsi),%es:(%rdi)
ffffffff8020076d:	4c 89 ef             	mov    %r13,%rdi
ffffffff80200770:	e8 77 1d 00 00       	callq  ffffffff802024ec <strlen>
ffffffff80200775:	85 c0                	test   %eax,%eax
ffffffff80200777:	0f 84 9f 00 00 00    	je     ffffffff8020081c <openSyscall+0xfd>
ffffffff8020077d:	ba 00 00 00 00       	mov    $0x0,%edx
ffffffff80200782:	48 89 ee             	mov    %rbp,%rsi
ffffffff80200785:	4c 89 ef             	mov    %r13,%rdi
ffffffff80200788:	e8 7c 1d 00 00       	callq  ffffffff80202509 <strcmp>
ffffffff8020078d:	85 c0                	test   %eax,%eax
ffffffff8020078f:	75 6c                	jne    ffffffff802007fd <openSyscall+0xde>
ffffffff80200791:	83 7c 24 68 01       	cmpl   $0x1,0x68(%rsp)
ffffffff80200796:	75 65                	jne    ffffffff802007fd <openSyscall+0xde>
ffffffff80200798:	48 8d 05 a9 9f 01 00 	lea    0x19fa9(%rip),%rax        # ffffffff8021a748 <current>
ffffffff8020079f:	48 8b 38             	mov    (%rax),%rdi
ffffffff802007a2:	48 8d 87 80 00 00 00 	lea    0x80(%rdi),%rax
ffffffff802007a9:	ba 02 00 00 00       	mov    $0x2,%edx
ffffffff802007ae:	ff c2                	inc    %edx
ffffffff802007b0:	48 83 38 00          	cmpq   $0x0,(%rax)
ffffffff802007b4:	40 0f 95 c6          	setne  %sil
ffffffff802007b8:	83 fa 1d             	cmp    $0x1d,%edx
ffffffff802007bb:	0f 9e c1             	setle  %cl
ffffffff802007be:	48 83 c0 08          	add    $0x8,%rax
ffffffff802007c2:	40 84 ce             	test   %cl,%sil
ffffffff802007c5:	75 e7                	jne    ffffffff802007ae <openSyscall+0x8f>
ffffffff802007c7:	48 63 c2             	movslq %edx,%rax
ffffffff802007ca:	4d 63 e4             	movslq %r12d,%r12
ffffffff802007cd:	4c 89 64 c7 68       	mov    %r12,0x68(%rdi,%rax,8)
ffffffff802007d2:	89 d0                	mov    %edx,%eax
ffffffff802007d4:	83 fa 1d             	cmp    $0x1d,%edx
ffffffff802007d7:	0f 8e 4e 01 00 00    	jle    ffffffff8020092b <openSyscall+0x20c>
ffffffff802007dd:	be 1e 00 00 00       	mov    $0x1e,%esi
ffffffff802007e2:	48 8d 3d a7 39 00 00 	lea    0x39a7(%rip),%rdi        # ffffffff80204190 <_x86_64_asm_ltr+0x1f8>
ffffffff802007e9:	b8 00 00 00 00       	mov    $0x0,%eax
ffffffff802007ee:	e8 1d 1a 00 00       	callq  ffffffff80202210 <kprintf>
ffffffff802007f3:	b8 ff ff ff ff       	mov    $0xffffffff,%eax
ffffffff802007f8:	e9 2e 01 00 00       	jmpq   ffffffff8020092b <openSyscall+0x20c>
ffffffff802007fd:	41 ff c4             	inc    %r12d
ffffffff80200800:	48 83 eb 80          	sub    $0xffffffffffffff80,%rbx
ffffffff80200804:	48 8d 05 f5 a0 01 00 	lea    0x1a0f5(%rip),%rax        # ffffffff8021a900 <t_index>
ffffffff8020080b:	44 39 20             	cmp    %r12d,(%rax)
ffffffff8020080e:	0f 8f 4b ff ff ff    	jg     ffffffff8020075f <openSyscall+0x40>
ffffffff80200814:	eb 06                	jmp    ffffffff8020081c <openSyscall+0xfd>
ffffffff80200816:	41 bc 01 00 00 00    	mov    $0x1,%r12d
ffffffff8020081c:	b8 ff ff ff ff       	mov    $0xffffffff,%eax
ffffffff80200821:	48 8d 15 d8 a0 01 00 	lea    0x1a0d8(%rip),%rdx        # ffffffff8021a900 <t_index>
ffffffff80200828:	44 39 22             	cmp    %r12d,(%rdx)
ffffffff8020082b:	0f 85 fa 00 00 00    	jne    ffffffff8020092b <openSyscall+0x20c>
ffffffff80200831:	48 8d 3d 7c 37 00 00 	lea    0x377c(%rip),%rdi        # ffffffff80203fb4 <_x86_64_asm_ltr+0x1c>
ffffffff80200838:	b8 00 00 00 00       	mov    $0x0,%eax
ffffffff8020083d:	e8 ce 19 00 00       	callq  ffffffff80202210 <kprintf>
ffffffff80200842:	b8 ff ff ff ff       	mov    $0xffffffff,%eax
ffffffff80200847:	e9 df 00 00 00       	jmpq   ffffffff8020092b <openSyscall+0x20c>
ffffffff8020084c:	b8 ff ff ff ff       	mov    $0xffffffff,%eax
ffffffff80200851:	48 83 fe 04          	cmp    $0x4,%rsi
ffffffff80200855:	0f 85 d0 00 00 00    	jne    ffffffff8020092b <openSyscall+0x20c>
ffffffff8020085b:	e8 8c 1c 00 00       	callq  ffffffff802024ec <strlen>
ffffffff80200860:	48 63 d0             	movslq %eax,%rdx
ffffffff80200863:	80 7c 15 ff 2f       	cmpb   $0x2f,-0x1(%rbp,%rdx,1)
ffffffff80200868:	74 0e                	je     ffffffff80200878 <openSyscall+0x159>
ffffffff8020086a:	c6 44 15 00 2f       	movb   $0x2f,0x0(%rbp,%rdx,1)
ffffffff8020086f:	ff c0                	inc    %eax
ffffffff80200871:	48 98                	cltq   
ffffffff80200873:	c6 44 05 00 00       	movb   $0x0,0x0(%rbp,%rax,1)
ffffffff80200878:	48 89 ee             	mov    %rbp,%rsi
ffffffff8020087b:	48 8d 3d 47 37 00 00 	lea    0x3747(%rip),%rdi        # ffffffff80203fc9 <_x86_64_asm_ltr+0x31>
ffffffff80200882:	b8 00 00 00 00       	mov    $0x0,%eax
ffffffff80200887:	e8 84 19 00 00       	callq  ffffffff80202210 <kprintf>
ffffffff8020088c:	48 8d 05 6d a0 01 00 	lea    0x1a06d(%rip),%rax        # ffffffff8021a900 <t_index>
ffffffff80200893:	83 38 01             	cmpl   $0x1,(%rax)
ffffffff80200896:	7e 61                	jle    ffffffff802008f9 <openSyscall+0x1da>
ffffffff80200898:	48 8d 05 41 6a 00 00 	lea    0x6a41(%rip),%rax        # ffffffff802072e0 <root>
ffffffff8020089f:	48 8d 98 80 00 00 00 	lea    0x80(%rax),%rbx
ffffffff802008a6:	41 bc 01 00 00 00    	mov    $0x1,%r12d
ffffffff802008ac:	49 89 e5             	mov    %rsp,%r13
ffffffff802008af:	48 89 e7             	mov    %rsp,%rdi
ffffffff802008b2:	b9 10 00 00 00       	mov    $0x10,%ecx
ffffffff802008b7:	48 89 de             	mov    %rbx,%rsi
ffffffff802008ba:	f3 48 a5             	rep movsq %ds:(%rsi),%es:(%rdi)
ffffffff802008bd:	4c 89 ef             	mov    %r13,%rdi
ffffffff802008c0:	e8 27 1c 00 00       	callq  ffffffff802024ec <strlen>
ffffffff802008c5:	85 c0                	test   %eax,%eax
ffffffff802008c7:	74 36                	je     ffffffff802008ff <openSyscall+0x1e0>
ffffffff802008c9:	ba 00 00 00 00       	mov    $0x0,%edx
ffffffff802008ce:	48 89 ee             	mov    %rbp,%rsi
ffffffff802008d1:	4c 89 ef             	mov    %r13,%rdi
ffffffff802008d4:	e8 30 1c 00 00       	callq  ffffffff80202509 <strcmp>
ffffffff802008d9:	85 c0                	test   %eax,%eax
ffffffff802008db:	75 07                	jne    ffffffff802008e4 <openSyscall+0x1c5>
ffffffff802008dd:	83 7c 24 68 02       	cmpl   $0x2,0x68(%rsp)
ffffffff802008e2:	74 44                	je     ffffffff80200928 <openSyscall+0x209>
ffffffff802008e4:	41 ff c4             	inc    %r12d
ffffffff802008e7:	48 83 eb 80          	sub    $0xffffffffffffff80,%rbx
ffffffff802008eb:	48 8d 05 0e a0 01 00 	lea    0x1a00e(%rip),%rax        # ffffffff8021a900 <t_index>
ffffffff802008f2:	44 39 20             	cmp    %r12d,(%rax)
ffffffff802008f5:	7f b8                	jg     ffffffff802008af <openSyscall+0x190>
ffffffff802008f7:	eb 06                	jmp    ffffffff802008ff <openSyscall+0x1e0>
ffffffff802008f9:	41 bc 01 00 00 00    	mov    $0x1,%r12d
ffffffff802008ff:	b8 ff ff ff ff       	mov    $0xffffffff,%eax
ffffffff80200904:	48 8d 15 f5 9f 01 00 	lea    0x19ff5(%rip),%rdx        # ffffffff8021a900 <t_index>
ffffffff8020090b:	44 39 22             	cmp    %r12d,(%rdx)
ffffffff8020090e:	75 1b                	jne    ffffffff8020092b <openSyscall+0x20c>
ffffffff80200910:	48 8d 3d b5 36 00 00 	lea    0x36b5(%rip),%rdi        # ffffffff80203fcc <_x86_64_asm_ltr+0x34>
ffffffff80200917:	b8 00 00 00 00       	mov    $0x0,%eax
ffffffff8020091c:	e8 ef 18 00 00       	callq  ffffffff80202210 <kprintf>
ffffffff80200921:	b8 ff ff ff ff       	mov    $0xffffffff,%eax
ffffffff80200926:	eb 03                	jmp    ffffffff8020092b <openSyscall+0x20c>
ffffffff80200928:	44 89 e0             	mov    %r12d,%eax
ffffffff8020092b:	48 81 c4 88 00 00 00 	add    $0x88,%rsp
ffffffff80200932:	5b                   	pop    %rbx
ffffffff80200933:	5d                   	pop    %rbp
ffffffff80200934:	41 5c                	pop    %r12
ffffffff80200936:	41 5d                	pop    %r13
ffffffff80200938:	c3                   	retq   

ffffffff80200939 <readdirSyscall>:
ffffffff80200939:	41 55                	push   %r13
ffffffff8020093b:	41 54                	push   %r12
ffffffff8020093d:	55                   	push   %rbp
ffffffff8020093e:	53                   	push   %rbx
ffffffff8020093f:	48 83 ec 08          	sub    $0x8,%rsp
ffffffff80200943:	41 89 fd             	mov    %edi,%r13d
ffffffff80200946:	48 63 ff             	movslq %edi,%rdi
ffffffff80200949:	48 c1 e7 07          	shl    $0x7,%rdi
ffffffff8020094d:	48 81 c7 e0 72 20 80 	add    $0xffffffff802072e0,%rdi
ffffffff80200954:	e8 93 1b 00 00       	callq  ffffffff802024ec <strlen>
ffffffff80200959:	41 89 c4             	mov    %eax,%r12d
ffffffff8020095c:	48 8d 3d 84 36 00 00 	lea    0x3684(%rip),%rdi        # ffffffff80203fe7 <_x86_64_asm_ltr+0x4f>
ffffffff80200963:	b8 00 00 00 00       	mov    $0x0,%eax
ffffffff80200968:	e8 a3 18 00 00       	callq  ffffffff80202210 <kprintf>
ffffffff8020096d:	48 8d 3d 72 36 00 00 	lea    0x3672(%rip),%rdi        # ffffffff80203fe6 <_x86_64_asm_ltr+0x4e>
ffffffff80200974:	b8 00 00 00 00       	mov    $0x0,%eax
ffffffff80200979:	e8 92 18 00 00       	callq  ffffffff80202210 <kprintf>
ffffffff8020097e:	48 8d 05 7b 9f 01 00 	lea    0x19f7b(%rip),%rax        # ffffffff8021a900 <t_index>
ffffffff80200985:	83 38 01             	cmpl   $0x1,(%rax)
ffffffff80200988:	7e 46                	jle    ffffffff802009d0 <readdirSyscall+0x97>
ffffffff8020098a:	4d 63 e4             	movslq %r12d,%r12
ffffffff8020098d:	48 8d 05 4c 69 00 00 	lea    0x694c(%rip),%rax        # ffffffff802072e0 <root>
ffffffff80200994:	49 8d 9c 04 80 00 00 	lea    0x80(%r12,%rax,1),%rbx
ffffffff8020099b:	00 
ffffffff8020099c:	bd 01 00 00 00       	mov    $0x1,%ebp
ffffffff802009a1:	49 f7 dc             	neg    %r12
ffffffff802009a4:	46 3b 6c 23 78       	cmp    0x78(%rbx,%r12,1),%r13d
ffffffff802009a9:	75 14                	jne    ffffffff802009bf <readdirSyscall+0x86>
ffffffff802009ab:	48 89 de             	mov    %rbx,%rsi
ffffffff802009ae:	48 8d 3d 39 36 00 00 	lea    0x3639(%rip),%rdi        # ffffffff80203fee <_x86_64_asm_ltr+0x56>
ffffffff802009b5:	b8 00 00 00 00       	mov    $0x0,%eax
ffffffff802009ba:	e8 51 18 00 00       	callq  ffffffff80202210 <kprintf>
ffffffff802009bf:	ff c5                	inc    %ebp
ffffffff802009c1:	48 83 eb 80          	sub    $0xffffffffffffff80,%rbx
ffffffff802009c5:	48 8d 05 34 9f 01 00 	lea    0x19f34(%rip),%rax        # ffffffff8021a900 <t_index>
ffffffff802009cc:	39 28                	cmp    %ebp,(%rax)
ffffffff802009ce:	7f d4                	jg     ffffffff802009a4 <readdirSyscall+0x6b>
ffffffff802009d0:	b8 00 00 00 00       	mov    $0x0,%eax
ffffffff802009d5:	48 83 c4 08          	add    $0x8,%rsp
ffffffff802009d9:	5b                   	pop    %rbx
ffffffff802009da:	5d                   	pop    %rbp
ffffffff802009db:	41 5c                	pop    %r12
ffffffff802009dd:	41 5d                	pop    %r13
ffffffff802009df:	c3                   	retq   

ffffffff802009e0 <sys_close>:
ffffffff802009e0:	b8 01 00 00 00       	mov    $0x1,%eax
ffffffff802009e5:	83 ff 1e             	cmp    $0x1e,%edi
ffffffff802009e8:	7f 1b                	jg     ffffffff80200a05 <sys_close+0x25>
ffffffff802009ea:	48 8d 05 57 9d 01 00 	lea    0x19d57(%rip),%rax        # ffffffff8021a748 <current>
ffffffff802009f1:	48 8b 00             	mov    (%rax),%rax
ffffffff802009f4:	48 63 ff             	movslq %edi,%rdi
ffffffff802009f7:	48 c7 44 f8 68 00 00 	movq   $0x0,0x68(%rax,%rdi,8)
ffffffff802009fe:	00 00 
ffffffff80200a00:	b8 00 00 00 00       	mov    $0x0,%eax
ffffffff80200a05:	f3 c3                	repz retq 

ffffffff80200a07 <chdirSyscall>:
ffffffff80200a07:	53                   	push   %rbx
ffffffff80200a08:	48 89 fb             	mov    %rdi,%rbx
ffffffff80200a0b:	e8 55 0a 00 00       	callq  ffffffff80201465 <isDir>
ffffffff80200a10:	48 85 c0             	test   %rax,%rax
ffffffff80200a13:	75 13                	jne    ffffffff80200a28 <chdirSyscall+0x21>
ffffffff80200a15:	48 8d 3d da 35 00 00 	lea    0x35da(%rip),%rdi        # ffffffff80203ff6 <_x86_64_asm_ltr+0x5e>
ffffffff80200a1c:	e8 ef 17 00 00       	callq  ffffffff80202210 <kprintf>
ffffffff80200a21:	b8 00 00 00 00       	mov    $0x0,%eax
ffffffff80200a26:	eb 29                	jmp    ffffffff80200a51 <chdirSyscall+0x4a>
ffffffff80200a28:	48 89 df             	mov    %rbx,%rdi
ffffffff80200a2b:	e8 bc 1a 00 00       	callq  ffffffff802024ec <strlen>
ffffffff80200a30:	48 63 d0             	movslq %eax,%rdx
ffffffff80200a33:	48 8d 05 0e 9d 01 00 	lea    0x19d0e(%rip),%rax        # ffffffff8021a748 <current>
ffffffff80200a3a:	48 8b 38             	mov    (%rax),%rdi
ffffffff80200a3d:	48 81 c7 64 01 00 00 	add    $0x164,%rdi
ffffffff80200a44:	48 89 de             	mov    %rbx,%rsi
ffffffff80200a47:	e8 c8 1b 00 00       	callq  ffffffff80202614 <memcpy>
ffffffff80200a4c:	b8 01 00 00 00       	mov    $0x1,%eax
ffffffff80200a51:	5b                   	pop    %rbx
ffffffff80200a52:	c3                   	retq   

ffffffff80200a53 <getpwdSyscall>:
ffffffff80200a53:	55                   	push   %rbp
ffffffff80200a54:	53                   	push   %rbx
ffffffff80200a55:	48 83 ec 08          	sub    $0x8,%rsp
ffffffff80200a59:	48 89 fb             	mov    %rdi,%rbx
ffffffff80200a5c:	48 8d 2d e5 9c 01 00 	lea    0x19ce5(%rip),%rbp        # ffffffff8021a748 <current>
ffffffff80200a63:	48 8b 45 00          	mov    0x0(%rbp),%rax
ffffffff80200a67:	48 8d b8 64 01 00 00 	lea    0x164(%rax),%rdi
ffffffff80200a6e:	e8 79 1a 00 00       	callq  ffffffff802024ec <strlen>
ffffffff80200a73:	48 63 d0             	movslq %eax,%rdx
ffffffff80200a76:	48 8b 75 00          	mov    0x0(%rbp),%rsi
ffffffff80200a7a:	48 81 c6 64 01 00 00 	add    $0x164,%rsi
ffffffff80200a81:	48 89 df             	mov    %rbx,%rdi
ffffffff80200a84:	e8 8b 1b 00 00       	callq  ffffffff80202614 <memcpy>
ffffffff80200a89:	48 89 d8             	mov    %rbx,%rax
ffffffff80200a8c:	48 83 c4 08          	add    $0x8,%rsp
ffffffff80200a90:	5b                   	pop    %rbx
ffffffff80200a91:	5d                   	pop    %rbp
ffffffff80200a92:	c3                   	retq   

ffffffff80200a93 <exitSyscall>:
ffffffff80200a93:	b8 00 00 00 00       	mov    $0x0,%eax
ffffffff80200a98:	c3                   	retq   

ffffffff80200a99 <sleepSyscall>:
ffffffff80200a99:	b8 00 00 00 00       	mov    $0x0,%eax
ffffffff80200a9e:	c3                   	retq   

ffffffff80200a9f <dup2Syscall>:
ffffffff80200a9f:	48 89 f0             	mov    %rsi,%rax
ffffffff80200aa2:	c3                   	retq   

ffffffff80200aa3 <readSyscall>:
ffffffff80200aa3:	55                   	push   %rbp
ffffffff80200aa4:	53                   	push   %rbx
ffffffff80200aa5:	48 83 ec 08          	sub    $0x8,%rsp
ffffffff80200aa9:	48 89 f5             	mov    %rsi,%rbp
ffffffff80200aac:	48 85 ff             	test   %rdi,%rdi
ffffffff80200aaf:	75 0c                	jne    ffffffff80200abd <readSyscall+0x1a>
ffffffff80200ab1:	89 d6                	mov    %edx,%esi
ffffffff80200ab3:	48 89 ef             	mov    %rbp,%rdi
ffffffff80200ab6:	e8 a5 0c 00 00       	callq  ffffffff80201760 <scanfstdin>
ffffffff80200abb:	eb 4e                	jmp    ffffffff80200b0b <readSyscall+0x68>
ffffffff80200abd:	48 8d 05 84 9c 01 00 	lea    0x19c84(%rip),%rax        # ffffffff8021a748 <current>
ffffffff80200ac4:	48 8b 00             	mov    (%rax),%rax
ffffffff80200ac7:	48 8b 4c f8 68       	mov    0x68(%rax,%rdi,8),%rcx
ffffffff80200acc:	48 c1 e1 07          	shl    $0x7,%rcx
ffffffff80200ad0:	48 81 c1 e0 72 20 80 	add    $0xffffffff802072e0,%rcx
ffffffff80200ad7:	48 8b 79 70          	mov    0x70(%rcx),%rdi
ffffffff80200adb:	b8 00 00 00 00       	mov    $0x0,%eax
ffffffff80200ae0:	48 85 ff             	test   %rdi,%rdi
ffffffff80200ae3:	74 26                	je     ffffffff80200b0b <readSyscall+0x68>
ffffffff80200ae5:	48 63 59 64          	movslq 0x64(%rcx),%rbx
ffffffff80200ae9:	48 39 da             	cmp    %rbx,%rdx
ffffffff80200aec:	48 0f 4d da          	cmovge %rdx,%rbx
ffffffff80200af0:	48 8d b7 00 02 00 00 	lea    0x200(%rdi),%rsi
ffffffff80200af7:	48 89 da             	mov    %rbx,%rdx
ffffffff80200afa:	48 89 ef             	mov    %rbp,%rdi
ffffffff80200afd:	e8 12 1b 00 00       	callq  ffffffff80202614 <memcpy>
ffffffff80200b02:	c6 44 1d 00 00       	movb   $0x0,0x0(%rbp,%rbx,1)
ffffffff80200b07:	48 8d 43 01          	lea    0x1(%rbx),%rax
ffffffff80200b0b:	48 83 c4 08          	add    $0x8,%rsp
ffffffff80200b0f:	5b                   	pop    %rbx
ffffffff80200b10:	5d                   	pop    %rbp
ffffffff80200b11:	c3                   	retq   

ffffffff80200b12 <writeSyscall>:
ffffffff80200b12:	48 ff cf             	dec    %rdi
ffffffff80200b15:	48 c7 c0 ff ff ff ff 	mov    $0xffffffffffffffff,%rax
ffffffff80200b1c:	48 83 ff 01          	cmp    $0x1,%rdi
ffffffff80200b20:	77 15                	ja     ffffffff80200b37 <writeSyscall+0x25>
ffffffff80200b22:	53                   	push   %rbx
ffffffff80200b23:	48 89 d3             	mov    %rdx,%rbx
ffffffff80200b26:	48 89 f7             	mov    %rsi,%rdi
ffffffff80200b29:	b8 00 00 00 00       	mov    $0x0,%eax
ffffffff80200b2e:	e8 dd 16 00 00       	callq  ffffffff80202210 <kprintf>
ffffffff80200b33:	48 89 d8             	mov    %rbx,%rax
ffffffff80200b36:	5b                   	pop    %rbx
ffffffff80200b37:	f3 c3                	repz retq 

ffffffff80200b39 <yieldSyscall>:
ffffffff80200b39:	48 8d 05 08 9c 01 00 	lea    0x19c08(%rip),%rax        # ffffffff8021a748 <current>
ffffffff80200b40:	48 8b 30             	mov    (%rax),%rsi
ffffffff80200b43:	48 8b be 88 01 00 00 	mov    0x188(%rsi),%rdi
ffffffff80200b4a:	48 c7 c0 ff ff ff ff 	mov    $0xffffffffffffffff,%rax
ffffffff80200b51:	48 85 ff             	test   %rdi,%rdi
ffffffff80200b54:	74 1c                	je     ffffffff80200b72 <yieldSyscall+0x39>
ffffffff80200b56:	48 83 ec 08          	sub    $0x8,%rsp
ffffffff80200b5a:	48 8d 05 e7 9b 01 00 	lea    0x19be7(%rip),%rax        # ffffffff8021a748 <current>
ffffffff80200b61:	48 89 38             	mov    %rdi,(%rax)
ffffffff80200b64:	e8 36 26 00 00       	callq  ffffffff8020319f <contextSwitch>
ffffffff80200b69:	b8 00 00 00 00       	mov    $0x0,%eax
ffffffff80200b6e:	48 83 c4 08          	add    $0x8,%rsp
ffffffff80200b72:	f3 c3                	repz retq 

ffffffff80200b74 <syscall>:
ffffffff80200b74:	48 83 ec 08          	sub    $0x8,%rsp
ffffffff80200b78:	48 83 ff 02          	cmp    $0x2,%rdi
ffffffff80200b7c:	75 11                	jne    ffffffff80200b8f <syscall+0x1b>
ffffffff80200b7e:	b8 00 00 00 00       	mov    $0x0,%eax
ffffffff80200b83:	e8 a3 f7 ff ff       	callq  ffffffff8020032b <forkSyscall>
ffffffff80200b88:	48 98                	cltq   
ffffffff80200b8a:	e9 f4 00 00 00       	jmpq   ffffffff80200c83 <syscall+0x10f>
ffffffff80200b8f:	48 89 f0             	mov    %rsi,%rax
ffffffff80200b92:	48 89 d6             	mov    %rdx,%rsi
ffffffff80200b95:	48 83 ff 03          	cmp    $0x3,%rdi
ffffffff80200b99:	75 10                	jne    ffffffff80200bab <syscall+0x37>
ffffffff80200b9b:	48 89 ca             	mov    %rcx,%rdx
ffffffff80200b9e:	48 89 c7             	mov    %rax,%rdi
ffffffff80200ba1:	e8 fd fe ff ff       	callq  ffffffff80200aa3 <readSyscall>
ffffffff80200ba6:	e9 d8 00 00 00       	jmpq   ffffffff80200c83 <syscall+0x10f>
ffffffff80200bab:	48 83 ff 04          	cmp    $0x4,%rdi
ffffffff80200baf:	75 10                	jne    ffffffff80200bc1 <syscall+0x4d>
ffffffff80200bb1:	48 89 ca             	mov    %rcx,%rdx
ffffffff80200bb4:	48 89 c7             	mov    %rax,%rdi
ffffffff80200bb7:	e8 56 ff ff ff       	callq  ffffffff80200b12 <writeSyscall>
ffffffff80200bbc:	e9 c2 00 00 00       	jmpq   ffffffff80200c83 <syscall+0x10f>
ffffffff80200bc1:	48 83 ff 05          	cmp    $0x5,%rdi
ffffffff80200bc5:	75 12                	jne    ffffffff80200bd9 <syscall+0x65>
ffffffff80200bc7:	48 89 ce             	mov    %rcx,%rsi
ffffffff80200bca:	48 89 c7             	mov    %rax,%rdi
ffffffff80200bcd:	e8 4d fb ff ff       	callq  ffffffff8020071f <openSyscall>
ffffffff80200bd2:	48 98                	cltq   
ffffffff80200bd4:	e9 aa 00 00 00       	jmpq   ffffffff80200c83 <syscall+0x10f>
ffffffff80200bd9:	48 83 ff 07          	cmp    $0x7,%rdi
ffffffff80200bdd:	75 0f                	jne    ffffffff80200bee <syscall+0x7a>
ffffffff80200bdf:	89 ca                	mov    %ecx,%edx
ffffffff80200be1:	48 89 c7             	mov    %rax,%rdi
ffffffff80200be4:	e8 d7 fa ff ff       	callq  ffffffff802006c0 <waitpidSyscall>
ffffffff80200be9:	e9 95 00 00 00       	jmpq   ffffffff80200c83 <syscall+0x10f>
ffffffff80200bee:	48 83 ff 0c          	cmp    $0xc,%rdi
ffffffff80200bf2:	75 0d                	jne    ffffffff80200c01 <syscall+0x8d>
ffffffff80200bf4:	48 89 c7             	mov    %rax,%rdi
ffffffff80200bf7:	e8 0b fe ff ff       	callq  ffffffff80200a07 <chdirSyscall>
ffffffff80200bfc:	e9 82 00 00 00       	jmpq   ffffffff80200c83 <syscall+0x10f>
ffffffff80200c01:	48 83 ff 39          	cmp    $0x39,%rdi
ffffffff80200c05:	75 0d                	jne    ffffffff80200c14 <syscall+0xa0>
ffffffff80200c07:	48 89 ca             	mov    %rcx,%rdx
ffffffff80200c0a:	48 89 c7             	mov    %rax,%rdi
ffffffff80200c0d:	e8 9e f4 ff ff       	callq  ffffffff802000b0 <execveSyscall>
ffffffff80200c12:	eb 6f                	jmp    ffffffff80200c83 <syscall+0x10f>
ffffffff80200c14:	48 83 ff 5a          	cmp    $0x5a,%rdi
ffffffff80200c18:	75 0a                	jne    ffffffff80200c24 <syscall+0xb0>
ffffffff80200c1a:	48 89 c7             	mov    %rax,%rdi
ffffffff80200c1d:	e8 ea f6 ff ff       	callq  ffffffff8020030c <mallocSyscall>
ffffffff80200c22:	eb 5f                	jmp    ffffffff80200c83 <syscall+0x10f>
ffffffff80200c24:	48 81 ff 9e 00 00 00 	cmp    $0x9e,%rdi
ffffffff80200c2b:	75 11                	jne    ffffffff80200c3e <syscall+0xca>
ffffffff80200c2d:	b8 00 00 00 00       	mov    $0x0,%eax
ffffffff80200c32:	e8 02 ff ff ff       	callq  ffffffff80200b39 <yieldSyscall>
ffffffff80200c37:	b8 00 00 00 00       	mov    $0x0,%eax
ffffffff80200c3c:	eb 45                	jmp    ffffffff80200c83 <syscall+0x10f>
ffffffff80200c3e:	48 81 ff b7 00 00 00 	cmp    $0xb7,%rdi
ffffffff80200c45:	75 0a                	jne    ffffffff80200c51 <syscall+0xdd>
ffffffff80200c47:	48 89 c7             	mov    %rax,%rdi
ffffffff80200c4a:	e8 04 fe ff ff       	callq  ffffffff80200a53 <getpwdSyscall>
ffffffff80200c4f:	eb 32                	jmp    ffffffff80200c83 <syscall+0x10f>
ffffffff80200c51:	48 81 ff aa 00 00 00 	cmp    $0xaa,%rdi
ffffffff80200c58:	75 11                	jne    ffffffff80200c6b <syscall+0xf7>
ffffffff80200c5a:	b8 00 00 00 00       	mov    $0x0,%eax
ffffffff80200c5f:	e8 a8 11 00 00       	callq  ffffffff80201e0c <clearScreen>
ffffffff80200c64:	b8 00 00 00 00       	mov    $0x0,%eax
ffffffff80200c69:	eb 18                	jmp    ffffffff80200c83 <syscall+0x10f>
ffffffff80200c6b:	b8 00 00 00 00       	mov    $0x0,%eax
ffffffff80200c70:	48 81 ff dc 00 00 00 	cmp    $0xdc,%rdi
ffffffff80200c77:	75 0a                	jne    ffffffff80200c83 <syscall+0x10f>
ffffffff80200c79:	48 89 d7             	mov    %rdx,%rdi
ffffffff80200c7c:	e8 b8 fc ff ff       	callq  ffffffff80200939 <readdirSyscall>
ffffffff80200c81:	48 98                	cltq   
ffffffff80200c83:	48 83 c4 08          	add    $0x8,%rsp
ffffffff80200c87:	c3                   	retq   

ffffffff80200c88 <getIndex>:
ffffffff80200c88:	89 f1                	mov    %esi,%ecx
ffffffff80200c8a:	48 d3 ef             	shr    %cl,%rdi
ffffffff80200c8d:	48 89 f8             	mov    %rdi,%rax
ffffffff80200c90:	25 ff 01 00 00       	and    $0x1ff,%eax
ffffffff80200c95:	c3                   	retq   

ffffffff80200c96 <loadCR3>:
ffffffff80200c96:	53                   	push   %rbx
ffffffff80200c97:	48 89 fb             	mov    %rdi,%rbx
ffffffff80200c9a:	0f 22 db             	mov    %rbx,%cr3
ffffffff80200c9d:	5b                   	pop    %rbx
ffffffff80200c9e:	c3                   	retq   

ffffffff80200c9f <getCR3>:
ffffffff80200c9f:	0f 20 d8             	mov    %cr3,%rax
ffffffff80200ca2:	c3                   	retq   

ffffffff80200ca3 <pdpeAlloc>:
ffffffff80200ca3:	41 55                	push   %r13
ffffffff80200ca5:	41 54                	push   %r12
ffffffff80200ca7:	55                   	push   %rbp
ffffffff80200ca8:	53                   	push   %rbx
ffffffff80200ca9:	48 83 ec 08          	sub    $0x8,%rsp
ffffffff80200cad:	49 89 fc             	mov    %rdi,%r12
ffffffff80200cb0:	49 89 f5             	mov    %rsi,%r13
ffffffff80200cb3:	89 d5                	mov    %edx,%ebp
ffffffff80200cb5:	b8 00 00 00 00       	mov    $0x0,%eax
ffffffff80200cba:	e8 e3 19 00 00       	callq  ffffffff802026a2 <allocatePage>
ffffffff80200cbf:	48 89 c3             	mov    %rax,%rbx
ffffffff80200cc2:	40 80 fd 56          	cmp    $0x56,%bpl
ffffffff80200cc6:	75 25                	jne    ffffffff80200ced <pdpeAlloc+0x4a>
ffffffff80200cc8:	48 89 c5             	mov    %rax,%rbp
ffffffff80200ccb:	48 81 cb 00 00 00 80 	or     $0xffffffff80000000,%rbx
ffffffff80200cd2:	ba 00 10 00 00       	mov    $0x1000,%edx
ffffffff80200cd7:	be 00 00 00 00       	mov    $0x0,%esi
ffffffff80200cdc:	48 89 df             	mov    %rbx,%rdi
ffffffff80200cdf:	e8 ec 17 00 00       	callq  ffffffff802024d0 <memset>
ffffffff80200ce4:	48 89 e8             	mov    %rbp,%rax
ffffffff80200ce7:	48 83 c8 04          	or     $0x4,%rax
ffffffff80200ceb:	eb 15                	jmp    ffffffff80200d02 <pdpeAlloc+0x5f>
ffffffff80200ced:	ba 00 10 00 00       	mov    $0x1000,%edx
ffffffff80200cf2:	be 00 00 00 00       	mov    $0x0,%esi
ffffffff80200cf7:	48 89 c7             	mov    %rax,%rdi
ffffffff80200cfa:	e8 d1 17 00 00       	callq  ffffffff802024d0 <memset>
ffffffff80200cff:	48 89 d8             	mov    %rbx,%rax
ffffffff80200d02:	48 83 c8 03          	or     $0x3,%rax
ffffffff80200d06:	4b 89 04 ec          	mov    %rax,(%r12,%r13,8)
ffffffff80200d0a:	48 89 d8             	mov    %rbx,%rax
ffffffff80200d0d:	48 83 c4 08          	add    $0x8,%rsp
ffffffff80200d11:	5b                   	pop    %rbx
ffffffff80200d12:	5d                   	pop    %rbp
ffffffff80200d13:	41 5c                	pop    %r12
ffffffff80200d15:	41 5d                	pop    %r13
ffffffff80200d17:	c3                   	retq   

ffffffff80200d18 <pdeAlloc>:
ffffffff80200d18:	41 55                	push   %r13
ffffffff80200d1a:	41 54                	push   %r12
ffffffff80200d1c:	55                   	push   %rbp
ffffffff80200d1d:	53                   	push   %rbx
ffffffff80200d1e:	48 83 ec 08          	sub    $0x8,%rsp
ffffffff80200d22:	49 89 fc             	mov    %rdi,%r12
ffffffff80200d25:	49 89 f5             	mov    %rsi,%r13
ffffffff80200d28:	89 d5                	mov    %edx,%ebp
ffffffff80200d2a:	b8 00 00 00 00       	mov    $0x0,%eax
ffffffff80200d2f:	e8 6e 19 00 00       	callq  ffffffff802026a2 <allocatePage>
ffffffff80200d34:	48 89 c3             	mov    %rax,%rbx
ffffffff80200d37:	40 80 fd 56          	cmp    $0x56,%bpl
ffffffff80200d3b:	75 25                	jne    ffffffff80200d62 <pdeAlloc+0x4a>
ffffffff80200d3d:	48 89 c5             	mov    %rax,%rbp
ffffffff80200d40:	48 81 cb 00 00 00 80 	or     $0xffffffff80000000,%rbx
ffffffff80200d47:	ba 00 10 00 00       	mov    $0x1000,%edx
ffffffff80200d4c:	be 00 00 00 00       	mov    $0x0,%esi
ffffffff80200d51:	48 89 df             	mov    %rbx,%rdi
ffffffff80200d54:	e8 77 17 00 00       	callq  ffffffff802024d0 <memset>
ffffffff80200d59:	48 89 e8             	mov    %rbp,%rax
ffffffff80200d5c:	48 83 c8 04          	or     $0x4,%rax
ffffffff80200d60:	eb 15                	jmp    ffffffff80200d77 <pdeAlloc+0x5f>
ffffffff80200d62:	ba 00 10 00 00       	mov    $0x1000,%edx
ffffffff80200d67:	be 00 00 00 00       	mov    $0x0,%esi
ffffffff80200d6c:	48 89 c7             	mov    %rax,%rdi
ffffffff80200d6f:	e8 5c 17 00 00       	callq  ffffffff802024d0 <memset>
ffffffff80200d74:	48 89 d8             	mov    %rbx,%rax
ffffffff80200d77:	48 83 c8 03          	or     $0x3,%rax
ffffffff80200d7b:	4b 89 04 ec          	mov    %rax,(%r12,%r13,8)
ffffffff80200d7f:	48 89 d8             	mov    %rbx,%rax
ffffffff80200d82:	48 83 c4 08          	add    $0x8,%rsp
ffffffff80200d86:	5b                   	pop    %rbx
ffffffff80200d87:	5d                   	pop    %rbp
ffffffff80200d88:	41 5c                	pop    %r12
ffffffff80200d8a:	41 5d                	pop    %r13
ffffffff80200d8c:	c3                   	retq   

ffffffff80200d8d <pteAlloc>:
ffffffff80200d8d:	41 55                	push   %r13
ffffffff80200d8f:	41 54                	push   %r12
ffffffff80200d91:	55                   	push   %rbp
ffffffff80200d92:	53                   	push   %rbx
ffffffff80200d93:	48 83 ec 08          	sub    $0x8,%rsp
ffffffff80200d97:	49 89 fc             	mov    %rdi,%r12
ffffffff80200d9a:	49 89 f5             	mov    %rsi,%r13
ffffffff80200d9d:	89 d5                	mov    %edx,%ebp
ffffffff80200d9f:	b8 00 00 00 00       	mov    $0x0,%eax
ffffffff80200da4:	e8 f9 18 00 00       	callq  ffffffff802026a2 <allocatePage>
ffffffff80200da9:	48 89 c3             	mov    %rax,%rbx
ffffffff80200dac:	40 80 fd 56          	cmp    $0x56,%bpl
ffffffff80200db0:	75 25                	jne    ffffffff80200dd7 <pteAlloc+0x4a>
ffffffff80200db2:	48 89 c5             	mov    %rax,%rbp
ffffffff80200db5:	48 81 cb 00 00 00 80 	or     $0xffffffff80000000,%rbx
ffffffff80200dbc:	ba 00 10 00 00       	mov    $0x1000,%edx
ffffffff80200dc1:	be 00 00 00 00       	mov    $0x0,%esi
ffffffff80200dc6:	48 89 df             	mov    %rbx,%rdi
ffffffff80200dc9:	e8 02 17 00 00       	callq  ffffffff802024d0 <memset>
ffffffff80200dce:	48 89 e8             	mov    %rbp,%rax
ffffffff80200dd1:	48 83 c8 04          	or     $0x4,%rax
ffffffff80200dd5:	eb 15                	jmp    ffffffff80200dec <pteAlloc+0x5f>
ffffffff80200dd7:	ba 00 10 00 00       	mov    $0x1000,%edx
ffffffff80200ddc:	be 00 00 00 00       	mov    $0x0,%esi
ffffffff80200de1:	48 89 c7             	mov    %rax,%rdi
ffffffff80200de4:	e8 e7 16 00 00       	callq  ffffffff802024d0 <memset>
ffffffff80200de9:	48 89 d8             	mov    %rbx,%rax
ffffffff80200dec:	48 83 c8 03          	or     $0x3,%rax
ffffffff80200df0:	4b 89 04 ec          	mov    %rax,(%r12,%r13,8)
ffffffff80200df4:	48 89 d8             	mov    %rbx,%rax
ffffffff80200df7:	48 83 c4 08          	add    $0x8,%rsp
ffffffff80200dfb:	5b                   	pop    %rbx
ffffffff80200dfc:	5d                   	pop    %rbp
ffffffff80200dfd:	41 5c                	pop    %r12
ffffffff80200dff:	41 5d                	pop    %r13
ffffffff80200e01:	c3                   	retq   

ffffffff80200e02 <map_v_p>:
ffffffff80200e02:	41 56                	push   %r14
ffffffff80200e04:	41 55                	push   %r13
ffffffff80200e06:	41 54                	push   %r12
ffffffff80200e08:	55                   	push   %rbp
ffffffff80200e09:	53                   	push   %rbx
ffffffff80200e0a:	49 89 fc             	mov    %rdi,%r12
ffffffff80200e0d:	48 89 f3             	mov    %rsi,%rbx
ffffffff80200e10:	be 27 00 00 00       	mov    $0x27,%esi
ffffffff80200e15:	e8 6e fe ff ff       	callq  ffffffff80200c88 <getIndex>
ffffffff80200e1a:	49 89 c6             	mov    %rax,%r14
ffffffff80200e1d:	be 1e 00 00 00       	mov    $0x1e,%esi
ffffffff80200e22:	4c 89 e7             	mov    %r12,%rdi
ffffffff80200e25:	e8 5e fe ff ff       	callq  ffffffff80200c88 <getIndex>
ffffffff80200e2a:	49 89 c5             	mov    %rax,%r13
ffffffff80200e2d:	be 15 00 00 00       	mov    $0x15,%esi
ffffffff80200e32:	4c 89 e7             	mov    %r12,%rdi
ffffffff80200e35:	e8 4e fe ff ff       	callq  ffffffff80200c88 <getIndex>
ffffffff80200e3a:	48 89 c5             	mov    %rax,%rbp
ffffffff80200e3d:	be 0c 00 00 00       	mov    $0xc,%esi
ffffffff80200e42:	4c 89 e7             	mov    %r12,%rdi
ffffffff80200e45:	e8 3e fe ff ff       	callq  ffffffff80200c88 <getIndex>
ffffffff80200e4a:	49 89 c4             	mov    %rax,%r12
ffffffff80200e4d:	48 8d 05 7c 64 00 00 	lea    0x647c(%rip),%rax        # ffffffff802072d0 <pml4e>
ffffffff80200e54:	48 8b 38             	mov    (%rax),%rdi
ffffffff80200e57:	4a 8b 04 f7          	mov    (%rdi,%r14,8),%rax
ffffffff80200e5b:	a8 01                	test   $0x1,%al
ffffffff80200e5d:	74 08                	je     ffffffff80200e67 <map_v_p+0x65>
ffffffff80200e5f:	48 25 00 f0 ff ff    	and    $0xfffffffffffff000,%rax
ffffffff80200e65:	eb 0d                	jmp    ffffffff80200e74 <map_v_p+0x72>
ffffffff80200e67:	ba 50 00 00 00       	mov    $0x50,%edx
ffffffff80200e6c:	4c 89 f6             	mov    %r14,%rsi
ffffffff80200e6f:	e8 2f fe ff ff       	callq  ffffffff80200ca3 <pdpeAlloc>
ffffffff80200e74:	4a 8b 14 e8          	mov    (%rax,%r13,8),%rdx
ffffffff80200e78:	f6 c2 01             	test   $0x1,%dl
ffffffff80200e7b:	74 0c                	je     ffffffff80200e89 <map_v_p+0x87>
ffffffff80200e7d:	48 81 e2 00 f0 ff ff 	and    $0xfffffffffffff000,%rdx
ffffffff80200e84:	48 89 d7             	mov    %rdx,%rdi
ffffffff80200e87:	eb 13                	jmp    ffffffff80200e9c <map_v_p+0x9a>
ffffffff80200e89:	ba 50 00 00 00       	mov    $0x50,%edx
ffffffff80200e8e:	4c 89 ee             	mov    %r13,%rsi
ffffffff80200e91:	48 89 c7             	mov    %rax,%rdi
ffffffff80200e94:	e8 7f fe ff ff       	callq  ffffffff80200d18 <pdeAlloc>
ffffffff80200e99:	48 89 c7             	mov    %rax,%rdi
ffffffff80200e9c:	48 8b 04 ef          	mov    (%rdi,%rbp,8),%rax
ffffffff80200ea0:	a8 01                	test   $0x1,%al
ffffffff80200ea2:	74 08                	je     ffffffff80200eac <map_v_p+0xaa>
ffffffff80200ea4:	48 25 00 f0 ff ff    	and    $0xfffffffffffff000,%rax
ffffffff80200eaa:	eb 0d                	jmp    ffffffff80200eb9 <map_v_p+0xb7>
ffffffff80200eac:	ba 50 00 00 00       	mov    $0x50,%edx
ffffffff80200eb1:	48 89 ee             	mov    %rbp,%rsi
ffffffff80200eb4:	e8 d4 fe ff ff       	callq  ffffffff80200d8d <pteAlloc>
ffffffff80200eb9:	48 83 cb 03          	or     $0x3,%rbx
ffffffff80200ebd:	4a 89 1c e0          	mov    %rbx,(%rax,%r12,8)
ffffffff80200ec1:	5b                   	pop    %rbx
ffffffff80200ec2:	5d                   	pop    %rbp
ffffffff80200ec3:	41 5c                	pop    %r12
ffffffff80200ec5:	41 5d                	pop    %r13
ffffffff80200ec7:	41 5e                	pop    %r14
ffffffff80200ec9:	c3                   	retq   

ffffffff80200eca <map_v_p2>:
ffffffff80200eca:	41 56                	push   %r14
ffffffff80200ecc:	41 55                	push   %r13
ffffffff80200ece:	41 54                	push   %r12
ffffffff80200ed0:	55                   	push   %rbp
ffffffff80200ed1:	53                   	push   %rbx
ffffffff80200ed2:	49 89 fc             	mov    %rdi,%r12
ffffffff80200ed5:	48 89 f3             	mov    %rsi,%rbx
ffffffff80200ed8:	be 27 00 00 00       	mov    $0x27,%esi
ffffffff80200edd:	e8 a6 fd ff ff       	callq  ffffffff80200c88 <getIndex>
ffffffff80200ee2:	49 89 c6             	mov    %rax,%r14
ffffffff80200ee5:	be 1e 00 00 00       	mov    $0x1e,%esi
ffffffff80200eea:	4c 89 e7             	mov    %r12,%rdi
ffffffff80200eed:	e8 96 fd ff ff       	callq  ffffffff80200c88 <getIndex>
ffffffff80200ef2:	49 89 c5             	mov    %rax,%r13
ffffffff80200ef5:	be 15 00 00 00       	mov    $0x15,%esi
ffffffff80200efa:	4c 89 e7             	mov    %r12,%rdi
ffffffff80200efd:	e8 86 fd ff ff       	callq  ffffffff80200c88 <getIndex>
ffffffff80200f02:	48 89 c5             	mov    %rax,%rbp
ffffffff80200f05:	be 0c 00 00 00       	mov    $0xc,%esi
ffffffff80200f0a:	4c 89 e7             	mov    %r12,%rdi
ffffffff80200f0d:	e8 76 fd ff ff       	callq  ffffffff80200c88 <getIndex>
ffffffff80200f12:	49 89 c4             	mov    %rax,%r12
ffffffff80200f15:	b8 00 00 00 00       	mov    $0x0,%eax
ffffffff80200f1a:	e8 80 fd ff ff       	callq  ffffffff80200c9f <getCR3>
ffffffff80200f1f:	48 0d 00 00 00 80    	or     $0xffffffff80000000,%rax
ffffffff80200f25:	4a 8b 14 f0          	mov    (%rax,%r14,8),%rdx
ffffffff80200f29:	f6 c2 01             	test   $0x1,%dl
ffffffff80200f2c:	74 12                	je     ffffffff80200f40 <map_v_p2+0x76>
ffffffff80200f2e:	81 e2 00 f0 ff 7f    	and    $0x7ffff000,%edx
ffffffff80200f34:	48 89 d7             	mov    %rdx,%rdi
ffffffff80200f37:	48 81 cf 00 00 00 80 	or     $0xffffffff80000000,%rdi
ffffffff80200f3e:	eb 13                	jmp    ffffffff80200f53 <map_v_p2+0x89>
ffffffff80200f40:	48 89 c7             	mov    %rax,%rdi
ffffffff80200f43:	ba 56 00 00 00       	mov    $0x56,%edx
ffffffff80200f48:	4c 89 f6             	mov    %r14,%rsi
ffffffff80200f4b:	e8 53 fd ff ff       	callq  ffffffff80200ca3 <pdpeAlloc>
ffffffff80200f50:	48 89 c7             	mov    %rax,%rdi
ffffffff80200f53:	4a 8b 14 ef          	mov    (%rdi,%r13,8),%rdx
ffffffff80200f57:	f6 c2 01             	test   $0x1,%dl
ffffffff80200f5a:	74 12                	je     ffffffff80200f6e <map_v_p2+0xa4>
ffffffff80200f5c:	81 e2 00 f0 ff 7f    	and    $0x7ffff000,%edx
ffffffff80200f62:	48 81 ca 00 00 00 80 	or     $0xffffffff80000000,%rdx
ffffffff80200f69:	48 89 d7             	mov    %rdx,%rdi
ffffffff80200f6c:	eb 10                	jmp    ffffffff80200f7e <map_v_p2+0xb4>
ffffffff80200f6e:	ba 56 00 00 00       	mov    $0x56,%edx
ffffffff80200f73:	4c 89 ee             	mov    %r13,%rsi
ffffffff80200f76:	e8 9d fd ff ff       	callq  ffffffff80200d18 <pdeAlloc>
ffffffff80200f7b:	48 89 c7             	mov    %rax,%rdi
ffffffff80200f7e:	48 8b 04 ef          	mov    (%rdi,%rbp,8),%rax
ffffffff80200f82:	a8 01                	test   $0x1,%al
ffffffff80200f84:	74 0d                	je     ffffffff80200f93 <map_v_p2+0xc9>
ffffffff80200f86:	25 00 f0 ff 7f       	and    $0x7ffff000,%eax
ffffffff80200f8b:	48 0d 00 00 00 80    	or     $0xffffffff80000000,%rax
ffffffff80200f91:	eb 0d                	jmp    ffffffff80200fa0 <map_v_p2+0xd6>
ffffffff80200f93:	ba 56 00 00 00       	mov    $0x56,%edx
ffffffff80200f98:	48 89 ee             	mov    %rbp,%rsi
ffffffff80200f9b:	e8 ed fd ff ff       	callq  ffffffff80200d8d <pteAlloc>
ffffffff80200fa0:	48 83 cb 07          	or     $0x7,%rbx
ffffffff80200fa4:	4a 89 1c e0          	mov    %rbx,(%rax,%r12,8)
ffffffff80200fa8:	5b                   	pop    %rbx
ffffffff80200fa9:	5d                   	pop    %rbp
ffffffff80200faa:	41 5c                	pop    %r12
ffffffff80200fac:	41 5d                	pop    %r13
ffffffff80200fae:	41 5e                	pop    %r14
ffffffff80200fb0:	c3                   	retq   

ffffffff80200fb1 <kernmemMap>:
ffffffff80200fb1:	41 57                	push   %r15
ffffffff80200fb3:	41 56                	push   %r14
ffffffff80200fb5:	41 55                	push   %r13
ffffffff80200fb7:	41 54                	push   %r12
ffffffff80200fb9:	55                   	push   %rbp
ffffffff80200fba:	53                   	push   %rbx
ffffffff80200fbb:	48 83 ec 18          	sub    $0x18,%rsp
ffffffff80200fbf:	48 89 fb             	mov    %rdi,%rbx
ffffffff80200fc2:	49 89 f4             	mov    %rsi,%r12
ffffffff80200fc5:	48 8b 2d 3c 50 00 00 	mov    0x503c(%rip),%rbp        # ffffffff80206008 <_x86_64_asm_ltr+0x2070>
ffffffff80200fcc:	be 27 00 00 00       	mov    $0x27,%esi
ffffffff80200fd1:	48 89 ef             	mov    %rbp,%rdi
ffffffff80200fd4:	e8 af fc ff ff       	callq  ffffffff80200c88 <getIndex>
ffffffff80200fd9:	49 89 c7             	mov    %rax,%r15
ffffffff80200fdc:	be 1e 00 00 00       	mov    $0x1e,%esi
ffffffff80200fe1:	48 89 ef             	mov    %rbp,%rdi
ffffffff80200fe4:	e8 9f fc ff ff       	callq  ffffffff80200c88 <getIndex>
ffffffff80200fe9:	49 89 c6             	mov    %rax,%r14
ffffffff80200fec:	be 15 00 00 00       	mov    $0x15,%esi
ffffffff80200ff1:	48 89 ef             	mov    %rbp,%rdi
ffffffff80200ff4:	e8 8f fc ff ff       	callq  ffffffff80200c88 <getIndex>
ffffffff80200ff9:	48 89 44 24 08       	mov    %rax,0x8(%rsp)
ffffffff80200ffe:	b8 00 00 00 00       	mov    $0x0,%eax
ffffffff80201003:	e8 9a 16 00 00       	callq  ffffffff802026a2 <allocatePage>
ffffffff80201008:	4c 8d 2d c1 62 00 00 	lea    0x62c1(%rip),%r13        # ffffffff802072d0 <pml4e>
ffffffff8020100f:	49 89 45 00          	mov    %rax,0x0(%r13)
ffffffff80201013:	ba 00 10 00 00       	mov    $0x1000,%edx
ffffffff80201018:	be 00 00 00 00       	mov    $0x0,%esi
ffffffff8020101d:	48 89 c7             	mov    %rax,%rdi
ffffffff80201020:	e8 ab 14 00 00       	callq  ffffffff802024d0 <memset>
ffffffff80201025:	49 8b 7d 00          	mov    0x0(%r13),%rdi
ffffffff80201029:	48 8d 05 a8 62 00 00 	lea    0x62a8(%rip),%rax        # ffffffff802072d8 <cr3>
ffffffff80201030:	48 89 38             	mov    %rdi,(%rax)
ffffffff80201033:	ba 50 00 00 00       	mov    $0x50,%edx
ffffffff80201038:	4c 89 fe             	mov    %r15,%rsi
ffffffff8020103b:	e8 63 fc ff ff       	callq  ffffffff80200ca3 <pdpeAlloc>
ffffffff80201040:	ba 50 00 00 00       	mov    $0x50,%edx
ffffffff80201045:	4c 89 f6             	mov    %r14,%rsi
ffffffff80201048:	48 89 c7             	mov    %rax,%rdi
ffffffff8020104b:	e8 c8 fc ff ff       	callq  ffffffff80200d18 <pdeAlloc>
ffffffff80201050:	ba 50 00 00 00       	mov    $0x50,%edx
ffffffff80201055:	48 8b 74 24 08       	mov    0x8(%rsp),%rsi
ffffffff8020105a:	48 89 c7             	mov    %rax,%rdi
ffffffff8020105d:	e8 2b fd ff ff       	callq  ffffffff80200d8d <pteAlloc>
ffffffff80201062:	49 89 c5             	mov    %rax,%r13
ffffffff80201065:	4c 39 e3             	cmp    %r12,%rbx
ffffffff80201068:	73 2c                	jae    ffffffff80201096 <kernmemMap+0xe5>
ffffffff8020106a:	be 0c 00 00 00       	mov    $0xc,%esi
ffffffff8020106f:	48 89 ef             	mov    %rbp,%rdi
ffffffff80201072:	e8 11 fc ff ff       	callq  ffffffff80200c88 <getIndex>
ffffffff80201077:	48 89 da             	mov    %rbx,%rdx
ffffffff8020107a:	48 83 ca 03          	or     $0x3,%rdx
ffffffff8020107e:	49 89 54 c5 00       	mov    %rdx,0x0(%r13,%rax,8)
ffffffff80201083:	48 81 c3 00 10 00 00 	add    $0x1000,%rbx
ffffffff8020108a:	48 81 c5 00 10 00 00 	add    $0x1000,%rbp
ffffffff80201091:	49 39 dc             	cmp    %rbx,%r12
ffffffff80201094:	77 d4                	ja     ffffffff8020106a <kernmemMap+0xb9>
ffffffff80201096:	48 83 c4 18          	add    $0x18,%rsp
ffffffff8020109a:	5b                   	pop    %rbx
ffffffff8020109b:	5d                   	pop    %rbp
ffffffff8020109c:	41 5c                	pop    %r12
ffffffff8020109e:	41 5d                	pop    %r13
ffffffff802010a0:	41 5e                	pop    %r14
ffffffff802010a2:	41 5f                	pop    %r15
ffffffff802010a4:	c3                   	retq   

ffffffff802010a5 <phy2vir>:
ffffffff802010a5:	55                   	push   %rbp
ffffffff802010a6:	53                   	push   %rbx
ffffffff802010a7:	48 83 ec 08          	sub    $0x8,%rsp
ffffffff802010ab:	48 89 fd             	mov    %rdi,%rbp
ffffffff802010ae:	bb 00 00 00 00       	mov    $0x0,%ebx
ffffffff802010b3:	48 8d bb 00 00 00 80 	lea    -0x80000000(%rbx),%rdi
ffffffff802010ba:	48 89 de             	mov    %rbx,%rsi
ffffffff802010bd:	e8 40 fd ff ff       	callq  ffffffff80200e02 <map_v_p>
ffffffff802010c2:	48 81 c3 00 10 00 00 	add    $0x1000,%rbx
ffffffff802010c9:	48 39 dd             	cmp    %rbx,%rbp
ffffffff802010cc:	73 e5                	jae    ffffffff802010b3 <phy2vir+0xe>
ffffffff802010ce:	be 00 80 0b 00       	mov    $0xb8000,%esi
ffffffff802010d3:	48 c7 c7 00 80 0b 80 	mov    $0xffffffff800b8000,%rdi
ffffffff802010da:	e8 23 fd ff ff       	callq  ffffffff80200e02 <map_v_p>
ffffffff802010df:	48 8d 05 2a 86 01 00 	lea    0x1862a(%rip),%rax        # ffffffff80219710 <pageMap>
ffffffff802010e6:	48 81 08 00 00 00 80 	orq    $0xffffffff80000000,(%rax)
ffffffff802010ed:	48 8d 05 ac 98 01 00 	lea    0x198ac(%rip),%rax        # ffffffff8021a9a0 <video>
ffffffff802010f4:	48 81 08 00 00 00 80 	orq    $0xffffffff80000000,(%rax)
ffffffff802010fb:	48 8d 05 d6 61 00 00 	lea    0x61d6(%rip),%rax        # ffffffff802072d8 <cr3>
ffffffff80201102:	48 8b 38             	mov    (%rax),%rdi
ffffffff80201105:	e8 8c fb ff ff       	callq  ffffffff80200c96 <loadCR3>
ffffffff8020110a:	48 83 c4 08          	add    $0x8,%rsp
ffffffff8020110e:	5b                   	pop    %rbx
ffffffff8020110f:	5d                   	pop    %rbp
ffffffff80201110:	c3                   	retq   

ffffffff80201111 <setUserSpace>:
ffffffff80201111:	53                   	push   %rbx
ffffffff80201112:	b8 00 00 00 00       	mov    $0x0,%eax
ffffffff80201117:	e8 86 15 00 00       	callq  ffffffff802026a2 <allocatePage>
ffffffff8020111c:	48 89 c3             	mov    %rax,%rbx
ffffffff8020111f:	b8 00 00 00 00       	mov    $0x0,%eax
ffffffff80201124:	e8 76 fb ff ff       	callq  ffffffff80200c9f <getCR3>
ffffffff80201129:	48 0d 00 00 00 80    	or     $0xffffffff80000000,%rax
ffffffff8020112f:	48 8b 90 f8 0f 00 00 	mov    0xff8(%rax),%rdx
ffffffff80201136:	48 89 d8             	mov    %rbx,%rax
ffffffff80201139:	48 0d 00 00 00 80    	or     $0xffffffff80000000,%rax
ffffffff8020113f:	48 89 90 f8 0f 00 00 	mov    %rdx,0xff8(%rax)
ffffffff80201146:	48 89 d8             	mov    %rbx,%rax
ffffffff80201149:	5b                   	pop    %rbx
ffffffff8020114a:	c3                   	retq   

ffffffff8020114b <kmalloc>:
ffffffff8020114b:	53                   	push   %rbx
ffffffff8020114c:	b8 00 00 00 00       	mov    $0x0,%eax
ffffffff80201151:	e8 4c 15 00 00       	callq  ffffffff802026a2 <allocatePage>
ffffffff80201156:	48 89 c3             	mov    %rax,%rbx
ffffffff80201159:	48 81 cb 00 00 00 80 	or     $0xffffffff80000000,%rbx
ffffffff80201160:	48 89 c6             	mov    %rax,%rsi
ffffffff80201163:	48 89 df             	mov    %rbx,%rdi
ffffffff80201166:	e8 5f fd ff ff       	callq  ffffffff80200eca <map_v_p2>
ffffffff8020116b:	ba 00 10 00 00       	mov    $0x1000,%edx
ffffffff80201170:	be 00 00 00 00       	mov    $0x0,%esi
ffffffff80201175:	48 89 df             	mov    %rbx,%rdi
ffffffff80201178:	e8 53 13 00 00       	callq  ffffffff802024d0 <memset>
ffffffff8020117d:	48 89 d8             	mov    %rbx,%rax
ffffffff80201180:	5b                   	pop    %rbx
ffffffff80201181:	c3                   	retq   

ffffffff80201182 <kfree>:
ffffffff80201182:	41 56                	push   %r14
ffffffff80201184:	41 55                	push   %r13
ffffffff80201186:	41 54                	push   %r12
ffffffff80201188:	55                   	push   %rbp
ffffffff80201189:	53                   	push   %rbx
ffffffff8020118a:	48 89 fb             	mov    %rdi,%rbx
ffffffff8020118d:	b8 00 00 00 00       	mov    $0x0,%eax
ffffffff80201192:	e8 08 fb ff ff       	callq  ffffffff80200c9f <getCR3>
ffffffff80201197:	49 89 c5             	mov    %rax,%r13
ffffffff8020119a:	be 27 00 00 00       	mov    $0x27,%esi
ffffffff8020119f:	48 89 df             	mov    %rbx,%rdi
ffffffff802011a2:	e8 e1 fa ff ff       	callq  ffffffff80200c88 <getIndex>
ffffffff802011a7:	49 89 c6             	mov    %rax,%r14
ffffffff802011aa:	be 1e 00 00 00       	mov    $0x1e,%esi
ffffffff802011af:	48 89 df             	mov    %rbx,%rdi
ffffffff802011b2:	e8 d1 fa ff ff       	callq  ffffffff80200c88 <getIndex>
ffffffff802011b7:	49 89 c4             	mov    %rax,%r12
ffffffff802011ba:	be 15 00 00 00       	mov    $0x15,%esi
ffffffff802011bf:	48 89 df             	mov    %rbx,%rdi
ffffffff802011c2:	e8 c1 fa ff ff       	callq  ffffffff80200c88 <getIndex>
ffffffff802011c7:	48 89 c5             	mov    %rax,%rbp
ffffffff802011ca:	be 0c 00 00 00       	mov    $0xc,%esi
ffffffff802011cf:	48 89 df             	mov    %rbx,%rdi
ffffffff802011d2:	e8 b1 fa ff ff       	callq  ffffffff80200c88 <getIndex>
ffffffff802011d7:	4b 8b 54 f5 00       	mov    0x0(%r13,%r14,8),%rdx
ffffffff802011dc:	b9 00 00 00 00       	mov    $0x0,%ecx
ffffffff802011e1:	48 89 d6             	mov    %rdx,%rsi
ffffffff802011e4:	83 e6 01             	and    $0x1,%esi
ffffffff802011e7:	48 81 e2 00 f0 ff ff 	and    $0xfffffffffffff000,%rdx
ffffffff802011ee:	48 85 f6             	test   %rsi,%rsi
ffffffff802011f1:	48 0f 45 ca          	cmovne %rdx,%rcx
ffffffff802011f5:	4a 8b 14 e1          	mov    (%rcx,%r12,8),%rdx
ffffffff802011f9:	b9 00 00 00 00       	mov    $0x0,%ecx
ffffffff802011fe:	48 89 d6             	mov    %rdx,%rsi
ffffffff80201201:	83 e6 01             	and    $0x1,%esi
ffffffff80201204:	48 81 e2 00 f0 ff ff 	and    $0xfffffffffffff000,%rdx
ffffffff8020120b:	48 85 f6             	test   %rsi,%rsi
ffffffff8020120e:	48 0f 45 ca          	cmovne %rdx,%rcx
ffffffff80201212:	48 8b 14 e9          	mov    (%rcx,%rbp,8),%rdx
ffffffff80201216:	f6 c2 01             	test   $0x1,%dl
ffffffff80201219:	74 12                	je     ffffffff8020122d <kfree+0xab>
ffffffff8020121b:	48 81 e2 00 f0 ff ff 	and    $0xfffffffffffff000,%rdx
ffffffff80201222:	74 09                	je     ffffffff8020122d <kfree+0xab>
ffffffff80201224:	48 8b 3c c2          	mov    (%rdx,%rax,8),%rdi
ffffffff80201228:	e8 0b 15 00 00       	callq  ffffffff80202738 <deallocatePage>
ffffffff8020122d:	5b                   	pop    %rbx
ffffffff8020122e:	5d                   	pop    %rbp
ffffffff8020122f:	41 5c                	pop    %r12
ffffffff80201231:	41 5d                	pop    %r13
ffffffff80201233:	41 5e                	pop    %r14
ffffffff80201235:	c3                   	retq   

ffffffff80201236 <physicalAddress>:
ffffffff80201236:	41 55                	push   %r13
ffffffff80201238:	41 54                	push   %r12
ffffffff8020123a:	55                   	push   %rbp
ffffffff8020123b:	53                   	push   %rbx
ffffffff8020123c:	48 83 ec 08          	sub    $0x8,%rsp
ffffffff80201240:	48 89 fb             	mov    %rdi,%rbx
ffffffff80201243:	be 27 00 00 00       	mov    $0x27,%esi
ffffffff80201248:	e8 3b fa ff ff       	callq  ffffffff80200c88 <getIndex>
ffffffff8020124d:	49 89 c5             	mov    %rax,%r13
ffffffff80201250:	be 1e 00 00 00       	mov    $0x1e,%esi
ffffffff80201255:	48 89 df             	mov    %rbx,%rdi
ffffffff80201258:	e8 2b fa ff ff       	callq  ffffffff80200c88 <getIndex>
ffffffff8020125d:	49 89 c4             	mov    %rax,%r12
ffffffff80201260:	be 15 00 00 00       	mov    $0x15,%esi
ffffffff80201265:	48 89 df             	mov    %rbx,%rdi
ffffffff80201268:	e8 1b fa ff ff       	callq  ffffffff80200c88 <getIndex>
ffffffff8020126d:	48 89 c5             	mov    %rax,%rbp
ffffffff80201270:	be 0c 00 00 00       	mov    $0xc,%esi
ffffffff80201275:	48 89 df             	mov    %rbx,%rdi
ffffffff80201278:	e8 0b fa ff ff       	callq  ffffffff80200c88 <getIndex>
ffffffff8020127d:	48 89 c3             	mov    %rax,%rbx
ffffffff80201280:	b8 00 00 00 00       	mov    $0x0,%eax
ffffffff80201285:	e8 15 fa ff ff       	callq  ffffffff80200c9f <getCR3>
ffffffff8020128a:	48 0d 00 00 00 80    	or     $0xffffffff80000000,%rax
ffffffff80201290:	4a 8b 04 e8          	mov    (%rax,%r13,8),%rax
ffffffff80201294:	ba 00 00 00 00       	mov    $0x0,%edx
ffffffff80201299:	a8 01                	test   $0x1,%al
ffffffff8020129b:	74 0e                	je     ffffffff802012ab <physicalAddress+0x75>
ffffffff8020129d:	25 00 f0 ff 7f       	and    $0x7ffff000,%eax
ffffffff802012a2:	48 0d 00 00 00 80    	or     $0xffffffff80000000,%rax
ffffffff802012a8:	48 89 c2             	mov    %rax,%rdx
ffffffff802012ab:	4a 8b 04 e2          	mov    (%rdx,%r12,8),%rax
ffffffff802012af:	ba 00 00 00 00       	mov    $0x0,%edx
ffffffff802012b4:	a8 01                	test   $0x1,%al
ffffffff802012b6:	74 0e                	je     ffffffff802012c6 <physicalAddress+0x90>
ffffffff802012b8:	25 00 f0 ff 7f       	and    $0x7ffff000,%eax
ffffffff802012bd:	48 0d 00 00 00 80    	or     $0xffffffff80000000,%rax
ffffffff802012c3:	48 89 c2             	mov    %rax,%rdx
ffffffff802012c6:	48 8b 14 ea          	mov    (%rdx,%rbp,8),%rdx
ffffffff802012ca:	b8 00 00 00 00       	mov    $0x0,%eax
ffffffff802012cf:	f6 c2 01             	test   $0x1,%dl
ffffffff802012d2:	74 11                	je     ffffffff802012e5 <physicalAddress+0xaf>
ffffffff802012d4:	81 e2 00 f0 ff 7f    	and    $0x7ffff000,%edx
ffffffff802012da:	48 81 ca 00 00 00 80 	or     $0xffffffff80000000,%rdx
ffffffff802012e1:	48 8b 04 da          	mov    (%rdx,%rbx,8),%rax
ffffffff802012e5:	48 83 c4 08          	add    $0x8,%rsp
ffffffff802012e9:	5b                   	pop    %rbx
ffffffff802012ea:	5d                   	pop    %rbp
ffffffff802012eb:	41 5c                	pop    %r12
ffffffff802012ed:	41 5d                	pop    %r13
ffffffff802012ef:	c3                   	retq   

ffffffff802012f0 <oct2bin>:
ffffffff802012f0:	48 8d 4f 0a          	lea    0xa(%rdi),%rcx
ffffffff802012f4:	48 ff cf             	dec    %rdi
ffffffff802012f7:	be 01 00 00 00       	mov    $0x1,%esi
ffffffff802012fc:	b8 00 00 00 00       	mov    $0x0,%eax
ffffffff80201301:	0f be 11             	movsbl (%rcx),%edx
ffffffff80201304:	83 ea 30             	sub    $0x30,%edx
ffffffff80201307:	0f af d6             	imul   %esi,%edx
ffffffff8020130a:	01 d0                	add    %edx,%eax
ffffffff8020130c:	c1 e6 03             	shl    $0x3,%esi
ffffffff8020130f:	48 ff c9             	dec    %rcx
ffffffff80201312:	48 39 f9             	cmp    %rdi,%rcx
ffffffff80201315:	75 ea                	jne    ffffffff80201301 <oct2bin+0x11>
ffffffff80201317:	f3 c3                	repz retq 

ffffffff80201319 <getFile>:
ffffffff80201319:	41 55                	push   %r13
ffffffff8020131b:	41 54                	push   %r12
ffffffff8020131d:	55                   	push   %rbp
ffffffff8020131e:	53                   	push   %rbx
ffffffff8020131f:	48 83 ec 08          	sub    $0x8,%rsp
ffffffff80201323:	49 89 fd             	mov    %rdi,%r13
ffffffff80201326:	48 8d 2d 93 97 01 00 	lea    0x19793(%rip),%rbp        # ffffffff8021aac0 <_binary_tarfs_start>
ffffffff8020132d:	4c 8d 25 dc 2c 00 00 	lea    0x2cdc(%rip),%r12        # ffffffff80204010 <_x86_64_asm_ltr+0x78>
ffffffff80201334:	eb 51                	jmp    ffffffff80201387 <getFile+0x6e>
ffffffff80201336:	48 8d 7d 7c          	lea    0x7c(%rbp),%rdi
ffffffff8020133a:	e8 b1 ff ff ff       	callq  ffffffff802012f0 <oct2bin>
ffffffff8020133f:	89 c3                	mov    %eax,%ebx
ffffffff80201341:	a9 ff 01 00 00       	test   $0x1ff,%eax
ffffffff80201346:	74 17                	je     ffffffff8020135f <getFile+0x46>
ffffffff80201348:	8d 80 ff 01 00 00    	lea    0x1ff(%rax),%eax
ffffffff8020134e:	85 db                	test   %ebx,%ebx
ffffffff80201350:	0f 48 d8             	cmovs  %eax,%ebx
ffffffff80201353:	81 e3 00 fe ff ff    	and    $0xfffffe00,%ebx
ffffffff80201359:	8d 9b 00 02 00 00    	lea    0x200(%rbx),%ebx
ffffffff8020135f:	ba 00 00 00 00       	mov    $0x0,%edx
ffffffff80201364:	4c 89 ee             	mov    %r13,%rsi
ffffffff80201367:	48 89 ef             	mov    %rbp,%rdi
ffffffff8020136a:	e8 9a 11 00 00       	callq  ffffffff80202509 <strcmp>
ffffffff8020136f:	85 c0                	test   %eax,%eax
ffffffff80201371:	75 09                	jne    ffffffff8020137c <getFile+0x63>
ffffffff80201373:	48 8d 85 00 02 00 00 	lea    0x200(%rbp),%rax
ffffffff8020137a:	eb 28                	jmp    ffffffff802013a4 <getFile+0x8b>
ffffffff8020137c:	48 63 db             	movslq %ebx,%rbx
ffffffff8020137f:	48 8d ac 1d 00 02 00 	lea    0x200(%rbp,%rbx,1),%rbp
ffffffff80201386:	00 
ffffffff80201387:	48 8d bd 01 01 00 00 	lea    0x101(%rbp),%rdi
ffffffff8020138e:	ba 00 00 00 00       	mov    $0x0,%edx
ffffffff80201393:	4c 89 e6             	mov    %r12,%rsi
ffffffff80201396:	e8 6e 11 00 00       	callq  ffffffff80202509 <strcmp>
ffffffff8020139b:	85 c0                	test   %eax,%eax
ffffffff8020139d:	74 97                	je     ffffffff80201336 <getFile+0x1d>
ffffffff8020139f:	b8 00 00 00 00       	mov    $0x0,%eax
ffffffff802013a4:	48 83 c4 08          	add    $0x8,%rsp
ffffffff802013a8:	5b                   	pop    %rbx
ffffffff802013a9:	5d                   	pop    %rbp
ffffffff802013aa:	41 5c                	pop    %r12
ffffffff802013ac:	41 5d                	pop    %r13
ffffffff802013ae:	c3                   	retq   

ffffffff802013af <isFile>:
ffffffff802013af:	41 55                	push   %r13
ffffffff802013b1:	41 54                	push   %r12
ffffffff802013b3:	55                   	push   %rbp
ffffffff802013b4:	53                   	push   %rbx
ffffffff802013b5:	48 83 ec 08          	sub    $0x8,%rsp
ffffffff802013b9:	49 89 fd             	mov    %rdi,%r13
ffffffff802013bc:	48 8d 2d fd 96 01 00 	lea    0x196fd(%rip),%rbp        # ffffffff8021aac0 <_binary_tarfs_start>
ffffffff802013c3:	4c 8d 25 46 2c 00 00 	lea    0x2c46(%rip),%r12        # ffffffff80204010 <_x86_64_asm_ltr+0x78>
ffffffff802013ca:	eb 6d                	jmp    ffffffff80201439 <isFile+0x8a>
ffffffff802013cc:	48 8d 7d 7c          	lea    0x7c(%rbp),%rdi
ffffffff802013d0:	e8 1b ff ff ff       	callq  ffffffff802012f0 <oct2bin>
ffffffff802013d5:	89 c3                	mov    %eax,%ebx
ffffffff802013d7:	a9 ff 01 00 00       	test   $0x1ff,%eax
ffffffff802013dc:	74 17                	je     ffffffff802013f5 <isFile+0x46>
ffffffff802013de:	8d 80 ff 01 00 00    	lea    0x1ff(%rax),%eax
ffffffff802013e4:	85 db                	test   %ebx,%ebx
ffffffff802013e6:	0f 48 d8             	cmovs  %eax,%ebx
ffffffff802013e9:	81 e3 00 fe ff ff    	and    $0xfffffe00,%ebx
ffffffff802013ef:	8d 9b 00 02 00 00    	lea    0x200(%rbx),%ebx
ffffffff802013f5:	ba 00 00 00 00       	mov    $0x0,%edx
ffffffff802013fa:	4c 89 ee             	mov    %r13,%rsi
ffffffff802013fd:	48 89 ef             	mov    %rbp,%rdi
ffffffff80201400:	e8 04 11 00 00       	callq  ffffffff80202509 <strcmp>
ffffffff80201405:	85 c0                	test   %eax,%eax
ffffffff80201407:	75 25                	jne    ffffffff8020142e <isFile+0x7f>
ffffffff80201409:	48 8d bd 9c 00 00 00 	lea    0x9c(%rbp),%rdi
ffffffff80201410:	ba 00 00 00 00       	mov    $0x0,%edx
ffffffff80201415:	48 8d 35 fa 2b 00 00 	lea    0x2bfa(%rip),%rsi        # ffffffff80204016 <_x86_64_asm_ltr+0x7e>
ffffffff8020141c:	e8 e8 10 00 00       	callq  ffffffff80202509 <strcmp>
ffffffff80201421:	85 c0                	test   %eax,%eax
ffffffff80201423:	74 09                	je     ffffffff8020142e <isFile+0x7f>
ffffffff80201425:	48 8d 85 00 02 00 00 	lea    0x200(%rbp),%rax
ffffffff8020142c:	eb 2c                	jmp    ffffffff8020145a <isFile+0xab>
ffffffff8020142e:	48 63 db             	movslq %ebx,%rbx
ffffffff80201431:	48 8d ac 1d 00 02 00 	lea    0x200(%rbp,%rbx,1),%rbp
ffffffff80201438:	00 
ffffffff80201439:	48 8d bd 01 01 00 00 	lea    0x101(%rbp),%rdi
ffffffff80201440:	ba 00 00 00 00       	mov    $0x0,%edx
ffffffff80201445:	4c 89 e6             	mov    %r12,%rsi
ffffffff80201448:	e8 bc 10 00 00       	callq  ffffffff80202509 <strcmp>
ffffffff8020144d:	85 c0                	test   %eax,%eax
ffffffff8020144f:	0f 84 77 ff ff ff    	je     ffffffff802013cc <isFile+0x1d>
ffffffff80201455:	b8 00 00 00 00       	mov    $0x0,%eax
ffffffff8020145a:	48 83 c4 08          	add    $0x8,%rsp
ffffffff8020145e:	5b                   	pop    %rbx
ffffffff8020145f:	5d                   	pop    %rbp
ffffffff80201460:	41 5c                	pop    %r12
ffffffff80201462:	41 5d                	pop    %r13
ffffffff80201464:	c3                   	retq   

ffffffff80201465 <isDir>:
ffffffff80201465:	41 55                	push   %r13
ffffffff80201467:	41 54                	push   %r12
ffffffff80201469:	55                   	push   %rbp
ffffffff8020146a:	53                   	push   %rbx
ffffffff8020146b:	48 83 ec 08          	sub    $0x8,%rsp
ffffffff8020146f:	49 89 fd             	mov    %rdi,%r13
ffffffff80201472:	48 8d 2d 47 96 01 00 	lea    0x19647(%rip),%rbp        # ffffffff8021aac0 <_binary_tarfs_start>
ffffffff80201479:	4c 8d 25 90 2b 00 00 	lea    0x2b90(%rip),%r12        # ffffffff80204010 <_x86_64_asm_ltr+0x78>
ffffffff80201480:	eb 6d                	jmp    ffffffff802014ef <isDir+0x8a>
ffffffff80201482:	48 8d 7d 7c          	lea    0x7c(%rbp),%rdi
ffffffff80201486:	e8 65 fe ff ff       	callq  ffffffff802012f0 <oct2bin>
ffffffff8020148b:	89 c3                	mov    %eax,%ebx
ffffffff8020148d:	a9 ff 01 00 00       	test   $0x1ff,%eax
ffffffff80201492:	74 17                	je     ffffffff802014ab <isDir+0x46>
ffffffff80201494:	8d 80 ff 01 00 00    	lea    0x1ff(%rax),%eax
ffffffff8020149a:	85 db                	test   %ebx,%ebx
ffffffff8020149c:	0f 48 d8             	cmovs  %eax,%ebx
ffffffff8020149f:	81 e3 00 fe ff ff    	and    $0xfffffe00,%ebx
ffffffff802014a5:	8d 9b 00 02 00 00    	lea    0x200(%rbx),%ebx
ffffffff802014ab:	ba 00 00 00 00       	mov    $0x0,%edx
ffffffff802014b0:	4c 89 ee             	mov    %r13,%rsi
ffffffff802014b3:	48 89 ef             	mov    %rbp,%rdi
ffffffff802014b6:	e8 4e 10 00 00       	callq  ffffffff80202509 <strcmp>
ffffffff802014bb:	85 c0                	test   %eax,%eax
ffffffff802014bd:	75 25                	jne    ffffffff802014e4 <isDir+0x7f>
ffffffff802014bf:	48 8d bd 9c 00 00 00 	lea    0x9c(%rbp),%rdi
ffffffff802014c6:	ba 00 00 00 00       	mov    $0x0,%edx
ffffffff802014cb:	48 8d 35 46 2b 00 00 	lea    0x2b46(%rip),%rsi        # ffffffff80204018 <_x86_64_asm_ltr+0x80>
ffffffff802014d2:	e8 32 10 00 00       	callq  ffffffff80202509 <strcmp>
ffffffff802014d7:	85 c0                	test   %eax,%eax
ffffffff802014d9:	74 09                	je     ffffffff802014e4 <isDir+0x7f>
ffffffff802014db:	48 8d 85 00 02 00 00 	lea    0x200(%rbp),%rax
ffffffff802014e2:	eb 2c                	jmp    ffffffff80201510 <isDir+0xab>
ffffffff802014e4:	48 63 db             	movslq %ebx,%rbx
ffffffff802014e7:	48 8d ac 1d 00 02 00 	lea    0x200(%rbp,%rbx,1),%rbp
ffffffff802014ee:	00 
ffffffff802014ef:	48 8d bd 01 01 00 00 	lea    0x101(%rbp),%rdi
ffffffff802014f6:	ba 00 00 00 00       	mov    $0x0,%edx
ffffffff802014fb:	4c 89 e6             	mov    %r12,%rsi
ffffffff802014fe:	e8 06 10 00 00       	callq  ffffffff80202509 <strcmp>
ffffffff80201503:	85 c0                	test   %eax,%eax
ffffffff80201505:	0f 84 77 ff ff ff    	je     ffffffff80201482 <isDir+0x1d>
ffffffff8020150b:	b8 00 00 00 00       	mov    $0x0,%eax
ffffffff80201510:	48 83 c4 08          	add    $0x8,%rsp
ffffffff80201514:	5b                   	pop    %rbx
ffffffff80201515:	5d                   	pop    %rbp
ffffffff80201516:	41 5c                	pop    %r12
ffffffff80201518:	41 5d                	pop    %r13
ffffffff8020151a:	c3                   	retq   

ffffffff8020151b <makeNode>:
ffffffff8020151b:	41 56                	push   %r14
ffffffff8020151d:	41 55                	push   %r13
ffffffff8020151f:	41 54                	push   %r12
ffffffff80201521:	55                   	push   %rbp
ffffffff80201522:	53                   	push   %rbx
ffffffff80201523:	48 89 fb             	mov    %rdi,%rbx
ffffffff80201526:	89 f5                	mov    %esi,%ebp
ffffffff80201528:	49 89 ce             	mov    %rcx,%r14
ffffffff8020152b:	4d 89 c5             	mov    %r8,%r13
ffffffff8020152e:	4d 89 cc             	mov    %r9,%r12
ffffffff80201531:	48 89 fe             	mov    %rdi,%rsi
ffffffff80201534:	48 89 d7             	mov    %rdx,%rdi
ffffffff80201537:	e8 39 10 00 00       	callq  ffffffff80202575 <strcpy>
ffffffff8020153c:	4c 89 73 70          	mov    %r14,0x70(%rbx)
ffffffff80201540:	44 89 6b 64          	mov    %r13d,0x64(%rbx)
ffffffff80201544:	44 89 63 68          	mov    %r12d,0x68(%rbx)
ffffffff80201548:	89 6b 78             	mov    %ebp,0x78(%rbx)
ffffffff8020154b:	5b                   	pop    %rbx
ffffffff8020154c:	5d                   	pop    %rbp
ffffffff8020154d:	41 5c                	pop    %r12
ffffffff8020154f:	41 5d                	pop    %r13
ffffffff80201551:	41 5e                	pop    %r14
ffffffff80201553:	c3                   	retq   

ffffffff80201554 <parse>:
ffffffff80201554:	41 57                	push   %r15
ffffffff80201556:	41 56                	push   %r14
ffffffff80201558:	41 55                	push   %r13
ffffffff8020155a:	41 54                	push   %r12
ffffffff8020155c:	55                   	push   %rbp
ffffffff8020155d:	53                   	push   %rbx
ffffffff8020155e:	48 81 ec 08 01 00 00 	sub    $0x108,%rsp
ffffffff80201565:	49 89 fd             	mov    %rdi,%r13
ffffffff80201568:	41 89 f7             	mov    %esi,%r15d
ffffffff8020156b:	49 89 d6             	mov    %rdx,%r14
ffffffff8020156e:	48 89 4c 24 08       	mov    %rcx,0x8(%rsp)
ffffffff80201573:	e8 74 0f 00 00       	callq  ffffffff802024ec <strlen>
ffffffff80201578:	89 c3                	mov    %eax,%ebx
ffffffff8020157a:	48 8d b4 24 9c 00 00 	lea    0x9c(%rsp),%rsi
ffffffff80201581:	00 
ffffffff80201582:	4c 89 ef             	mov    %r13,%rdi
ffffffff80201585:	e8 eb 0f 00 00       	callq  ffffffff80202575 <strcpy>
ffffffff8020158a:	8d 53 fe             	lea    -0x2(%rbx),%edx
ffffffff8020158d:	ff cb                	dec    %ebx
ffffffff8020158f:	49 83 fe 01          	cmp    $0x1,%r14
ffffffff80201593:	0f 44 d3             	cmove  %ebx,%edx
ffffffff80201596:	eb 52                	jmp    ffffffff802015ea <parse+0x96>
ffffffff80201598:	ff ca                	dec    %edx
ffffffff8020159a:	75 4e                	jne    ffffffff802015ea <parse+0x96>
ffffffff8020159c:	48 8d 5c 24 18       	lea    0x18(%rsp),%rbx
ffffffff802015a1:	4d 63 cf             	movslq %r15d,%r9
ffffffff802015a4:	4c 8b 44 24 08       	mov    0x8(%rsp),%r8
ffffffff802015a9:	4c 89 f1             	mov    %r14,%rcx
ffffffff802015ac:	4c 89 ea             	mov    %r13,%rdx
ffffffff802015af:	be 00 00 00 00       	mov    $0x0,%esi
ffffffff802015b4:	48 89 df             	mov    %rbx,%rdi
ffffffff802015b7:	e8 5f ff ff ff       	callq  ffffffff8020151b <makeNode>
ffffffff802015bc:	48 8d 15 3d 93 01 00 	lea    0x1933d(%rip),%rdx        # ffffffff8021a900 <t_index>
ffffffff802015c3:	8b 02                	mov    (%rdx),%eax
ffffffff802015c5:	8d 48 01             	lea    0x1(%rax),%ecx
ffffffff802015c8:	89 0a                	mov    %ecx,(%rdx)
ffffffff802015ca:	48 98                	cltq   
ffffffff802015cc:	48 c1 e0 07          	shl    $0x7,%rax
ffffffff802015d0:	48 81 c0 e0 72 20 80 	add    $0xffffffff802072e0,%rax
ffffffff802015d7:	b9 10 00 00 00       	mov    $0x10,%ecx
ffffffff802015dc:	48 89 c7             	mov    %rax,%rdi
ffffffff802015df:	48 89 de             	mov    %rbx,%rsi
ffffffff802015e2:	f3 48 a5             	rep movsq %ds:(%rsi),%es:(%rdi)
ffffffff802015e5:	e9 ac 00 00 00       	jmpq   ffffffff80201696 <parse+0x142>
ffffffff802015ea:	48 63 c2             	movslq %edx,%rax
ffffffff802015ed:	80 bc 04 9c 00 00 00 	cmpb   $0x2f,0x9c(%rsp,%rax,1)
ffffffff802015f4:	2f 
ffffffff802015f5:	75 a1                	jne    ffffffff80201598 <parse+0x44>
ffffffff802015f7:	ff c2                	inc    %edx
ffffffff802015f9:	48 63 d2             	movslq %edx,%rdx
ffffffff802015fc:	c6 84 14 9c 00 00 00 	movb   $0x0,0x9c(%rsp,%rdx,1)
ffffffff80201603:	00 
ffffffff80201604:	bb 01 00 00 00       	mov    $0x1,%ebx
ffffffff80201609:	4c 8d 25 d0 5c 00 00 	lea    0x5cd0(%rip),%r12        # ffffffff802072e0 <root>
ffffffff80201610:	48 8d ac 24 9c 00 00 	lea    0x9c(%rsp),%rbp
ffffffff80201617:	00 
ffffffff80201618:	eb 02                	jmp    ffffffff8020161c <parse+0xc8>
ffffffff8020161a:	ff c3                	inc    %ebx
ffffffff8020161c:	48 63 f3             	movslq %ebx,%rsi
ffffffff8020161f:	48 c1 e6 07          	shl    $0x7,%rsi
ffffffff80201623:	4c 01 e6             	add    %r12,%rsi
ffffffff80201626:	ba 00 00 00 00       	mov    $0x0,%edx
ffffffff8020162b:	48 89 ef             	mov    %rbp,%rdi
ffffffff8020162e:	e8 d6 0e 00 00       	callq  ffffffff80202509 <strcmp>
ffffffff80201633:	83 f8 ff             	cmp    $0xffffffff,%eax
ffffffff80201636:	75 0d                	jne    ffffffff80201645 <parse+0xf1>
ffffffff80201638:	48 8d 05 c1 92 01 00 	lea    0x192c1(%rip),%rax        # ffffffff8021a900 <t_index>
ffffffff8020163f:	3b 18                	cmp    (%rax),%ebx
ffffffff80201641:	7c d7                	jl     ffffffff8020161a <parse+0xc6>
ffffffff80201643:	eb 51                	jmp    ffffffff80201696 <parse+0x142>
ffffffff80201645:	48 8d 05 b4 92 01 00 	lea    0x192b4(%rip),%rax        # ffffffff8021a900 <t_index>
ffffffff8020164c:	3b 18                	cmp    (%rax),%ebx
ffffffff8020164e:	7d 46                	jge    ffffffff80201696 <parse+0x142>
ffffffff80201650:	48 8d 6c 24 18       	lea    0x18(%rsp),%rbp
ffffffff80201655:	4d 63 cf             	movslq %r15d,%r9
ffffffff80201658:	4c 8b 44 24 08       	mov    0x8(%rsp),%r8
ffffffff8020165d:	4c 89 f1             	mov    %r14,%rcx
ffffffff80201660:	4c 89 ea             	mov    %r13,%rdx
ffffffff80201663:	89 de                	mov    %ebx,%esi
ffffffff80201665:	48 89 ef             	mov    %rbp,%rdi
ffffffff80201668:	e8 ae fe ff ff       	callq  ffffffff8020151b <makeNode>
ffffffff8020166d:	48 8d 15 8c 92 01 00 	lea    0x1928c(%rip),%rdx        # ffffffff8021a900 <t_index>
ffffffff80201674:	8b 02                	mov    (%rdx),%eax
ffffffff80201676:	8d 48 01             	lea    0x1(%rax),%ecx
ffffffff80201679:	89 0a                	mov    %ecx,(%rdx)
ffffffff8020167b:	48 98                	cltq   
ffffffff8020167d:	48 c1 e0 07          	shl    $0x7,%rax
ffffffff80201681:	48 81 c0 e0 72 20 80 	add    $0xffffffff802072e0,%rax
ffffffff80201688:	b9 10 00 00 00       	mov    $0x10,%ecx
ffffffff8020168d:	48 89 c7             	mov    %rax,%rdi
ffffffff80201690:	48 89 ee             	mov    %rbp,%rsi
ffffffff80201693:	f3 48 a5             	rep movsq %ds:(%rsi),%es:(%rdi)
ffffffff80201696:	48 81 c4 08 01 00 00 	add    $0x108,%rsp
ffffffff8020169d:	5b                   	pop    %rbx
ffffffff8020169e:	5d                   	pop    %rbp
ffffffff8020169f:	41 5c                	pop    %r12
ffffffff802016a1:	41 5d                	pop    %r13
ffffffff802016a3:	41 5e                	pop    %r14
ffffffff802016a5:	41 5f                	pop    %r15
ffffffff802016a7:	c3                   	retq   

ffffffff802016a8 <init_tarfs>:
ffffffff802016a8:	41 54                	push   %r12
ffffffff802016aa:	55                   	push   %rbp
ffffffff802016ab:	53                   	push   %rbx
ffffffff802016ac:	48 8d 2d 0d 94 01 00 	lea    0x1940d(%rip),%rbp        # ffffffff8021aac0 <_binary_tarfs_start>
ffffffff802016b3:	4c 8d 25 56 29 00 00 	lea    0x2956(%rip),%r12        # ffffffff80204010 <_x86_64_asm_ltr+0x78>
ffffffff802016ba:	eb 7b                	jmp    ffffffff80201737 <init_tarfs+0x8f>
ffffffff802016bc:	48 8d 7d 7c          	lea    0x7c(%rbp),%rdi
ffffffff802016c0:	e8 2b fc ff ff       	callq  ffffffff802012f0 <oct2bin>
ffffffff802016c5:	89 c3                	mov    %eax,%ebx
ffffffff802016c7:	48 8d bd 9c 00 00 00 	lea    0x9c(%rbp),%rdi
ffffffff802016ce:	ba 00 00 00 00       	mov    $0x0,%edx
ffffffff802016d3:	48 8d 35 3e 29 00 00 	lea    0x293e(%rip),%rsi        # ffffffff80204018 <_x86_64_asm_ltr+0x80>
ffffffff802016da:	e8 2a 0e 00 00       	callq  ffffffff80202509 <strcmp>
ffffffff802016df:	85 c0                	test   %eax,%eax
ffffffff802016e1:	75 17                	jne    ffffffff802016fa <init_tarfs+0x52>
ffffffff802016e3:	b9 00 00 00 00       	mov    $0x0,%ecx
ffffffff802016e8:	48 89 ea             	mov    %rbp,%rdx
ffffffff802016eb:	be 02 00 00 00       	mov    $0x2,%esi
ffffffff802016f0:	48 89 ef             	mov    %rbp,%rdi
ffffffff802016f3:	e8 5c fe ff ff       	callq  ffffffff80201554 <parse>
ffffffff802016f8:	eb 13                	jmp    ffffffff8020170d <init_tarfs+0x65>
ffffffff802016fa:	48 63 cb             	movslq %ebx,%rcx
ffffffff802016fd:	48 89 ea             	mov    %rbp,%rdx
ffffffff80201700:	be 01 00 00 00       	mov    $0x1,%esi
ffffffff80201705:	48 89 ef             	mov    %rbp,%rdi
ffffffff80201708:	e8 47 fe ff ff       	callq  ffffffff80201554 <parse>
ffffffff8020170d:	f7 c3 ff 01 00 00    	test   $0x1ff,%ebx
ffffffff80201713:	74 17                	je     ffffffff8020172c <init_tarfs+0x84>
ffffffff80201715:	8d 83 ff 01 00 00    	lea    0x1ff(%rbx),%eax
ffffffff8020171b:	85 db                	test   %ebx,%ebx
ffffffff8020171d:	0f 48 d8             	cmovs  %eax,%ebx
ffffffff80201720:	81 e3 00 fe ff ff    	and    $0xfffffe00,%ebx
ffffffff80201726:	8d 9b 00 02 00 00    	lea    0x200(%rbx),%ebx
ffffffff8020172c:	48 63 db             	movslq %ebx,%rbx
ffffffff8020172f:	48 8d ac 1d 00 02 00 	lea    0x200(%rbp,%rbx,1),%rbp
ffffffff80201736:	00 
ffffffff80201737:	48 8d bd 01 01 00 00 	lea    0x101(%rbp),%rdi
ffffffff8020173e:	ba 00 00 00 00       	mov    $0x0,%edx
ffffffff80201743:	4c 89 e6             	mov    %r12,%rsi
ffffffff80201746:	e8 be 0d 00 00       	callq  ffffffff80202509 <strcmp>
ffffffff8020174b:	85 c0                	test   %eax,%eax
ffffffff8020174d:	0f 84 69 ff ff ff    	je     ffffffff802016bc <init_tarfs+0x14>
ffffffff80201753:	5b                   	pop    %rbx
ffffffff80201754:	5d                   	pop    %rbp
ffffffff80201755:	41 5c                	pop    %r12
ffffffff80201757:	c3                   	retq   
ffffffff80201758:	0f 1f 84 00 00 00 00 	nopl   0x0(%rax,%rax,1)
ffffffff8020175f:	00 

ffffffff80201760 <scanfstdin>:
ffffffff80201760:	55                   	push   %rbp
ffffffff80201761:	53                   	push   %rbx
ffffffff80201762:	48 83 ec 08          	sub    $0x8,%rsp
ffffffff80201766:	48 89 fd             	mov    %rdi,%rbp
ffffffff80201769:	48 8d 05 98 58 00 00 	lea    0x5898(%rip),%rax        # ffffffff80207008 <scanFlag>
ffffffff80201770:	c7 00 01 00 00 00    	movl   $0x1,(%rax)
ffffffff80201776:	48 8d 05 83 58 00 00 	lea    0x5883(%rip),%rax        # ffffffff80207000 <localEcho>
ffffffff8020177d:	c7 00 01 00 00 00    	movl   $0x1,(%rax)
ffffffff80201783:	fb                   	sti    
ffffffff80201784:	b8 00 00 00 00       	mov    $0x0,%eax
ffffffff80201789:	e8 02 06 00 00       	callq  ffffffff80201d90 <printCursor>
ffffffff8020178e:	48 8d 05 73 58 00 00 	lea    0x5873(%rip),%rax        # ffffffff80207008 <scanFlag>
ffffffff80201795:	83 38 00             	cmpl   $0x0,(%rax)
ffffffff80201798:	75 ea                	jne    ffffffff80201784 <scanfstdin+0x24>
ffffffff8020179a:	48 8d 05 5f 58 00 00 	lea    0x585f(%rip),%rax        # ffffffff80207000 <localEcho>
ffffffff802017a1:	c7 00 00 00 00 00    	movl   $0x0,(%rax)
ffffffff802017a7:	48 8d 1d 56 58 00 00 	lea    0x5856(%rip),%rbx        # ffffffff80207004 <index>
ffffffff802017ae:	8b 03                	mov    (%rbx),%eax
ffffffff802017b0:	8d 50 01             	lea    0x1(%rax),%edx
ffffffff802017b3:	89 13                	mov    %edx,(%rbx)
ffffffff802017b5:	48 8d 35 64 58 00 00 	lea    0x5864(%rip),%rsi        # ffffffff80207020 <buffer>
ffffffff802017bc:	48 98                	cltq   
ffffffff802017be:	c6 04 06 00          	movb   $0x0,(%rsi,%rax,1)
ffffffff802017c2:	48 63 d2             	movslq %edx,%rdx
ffffffff802017c5:	48 89 ef             	mov    %rbp,%rdi
ffffffff802017c8:	e8 47 0e 00 00       	callq  ffffffff80202614 <memcpy>
ffffffff802017cd:	8b 03                	mov    (%rbx),%eax
ffffffff802017cf:	c7 03 00 00 00 00    	movl   $0x0,(%rbx)
ffffffff802017d5:	48 98                	cltq   
ffffffff802017d7:	48 83 c4 08          	add    $0x8,%rsp
ffffffff802017db:	5b                   	pop    %rbx
ffffffff802017dc:	5d                   	pop    %rbp
ffffffff802017dd:	c3                   	retq   

ffffffff802017de <register_interrupt_handler>:
ffffffff802017de:	0f b7 ff             	movzwl %di,%edi
ffffffff802017e1:	48 8d 05 18 6b 01 00 	lea    0x16b18(%rip),%rax        # ffffffff80218300 <int_handlers>
ffffffff802017e8:	48 89 34 f8          	mov    %rsi,(%rax,%rdi,8)
ffffffff802017ec:	c3                   	retq   

ffffffff802017ed <isr_install>:
ffffffff802017ed:	48 83 ec 08          	sub    $0x8,%rsp
ffffffff802017f1:	be 11 00 00 00       	mov    $0x11,%esi
ffffffff802017f6:	bf 20 00 00 00       	mov    $0x20,%edi
ffffffff802017fb:	e8 72 05 00 00       	callq  ffffffff80201d72 <outb>
ffffffff80201800:	be 11 00 00 00       	mov    $0x11,%esi
ffffffff80201805:	bf a0 00 00 00       	mov    $0xa0,%edi
ffffffff8020180a:	e8 63 05 00 00       	callq  ffffffff80201d72 <outb>
ffffffff8020180f:	be 20 00 00 00       	mov    $0x20,%esi
ffffffff80201814:	bf 21 00 00 00       	mov    $0x21,%edi
ffffffff80201819:	e8 54 05 00 00       	callq  ffffffff80201d72 <outb>
ffffffff8020181e:	be 28 00 00 00       	mov    $0x28,%esi
ffffffff80201823:	bf a1 00 00 00       	mov    $0xa1,%edi
ffffffff80201828:	e8 45 05 00 00       	callq  ffffffff80201d72 <outb>
ffffffff8020182d:	be 04 00 00 00       	mov    $0x4,%esi
ffffffff80201832:	bf 21 00 00 00       	mov    $0x21,%edi
ffffffff80201837:	e8 36 05 00 00       	callq  ffffffff80201d72 <outb>
ffffffff8020183c:	be 02 00 00 00       	mov    $0x2,%esi
ffffffff80201841:	bf a1 00 00 00       	mov    $0xa1,%edi
ffffffff80201846:	e8 27 05 00 00       	callq  ffffffff80201d72 <outb>
ffffffff8020184b:	be 01 00 00 00       	mov    $0x1,%esi
ffffffff80201850:	bf 21 00 00 00       	mov    $0x21,%edi
ffffffff80201855:	e8 18 05 00 00       	callq  ffffffff80201d72 <outb>
ffffffff8020185a:	be 01 00 00 00       	mov    $0x1,%esi
ffffffff8020185f:	bf a1 00 00 00       	mov    $0xa1,%edi
ffffffff80201864:	e8 09 05 00 00       	callq  ffffffff80201d72 <outb>
ffffffff80201869:	be 00 00 00 00       	mov    $0x0,%esi
ffffffff8020186e:	bf 21 00 00 00       	mov    $0x21,%edi
ffffffff80201873:	e8 fa 04 00 00       	callq  ffffffff80201d72 <outb>
ffffffff80201878:	be 00 00 00 00       	mov    $0x0,%esi
ffffffff8020187d:	bf a1 00 00 00       	mov    $0xa1,%edi
ffffffff80201882:	e8 eb 04 00 00       	callq  ffffffff80201d72 <outb>
ffffffff80201887:	b8 00 00 00 00       	mov    $0x0,%eax
ffffffff8020188c:	e8 ab 0b 00 00       	callq  ffffffff8020243c <init_idt>
ffffffff80201891:	48 83 c4 08          	add    $0x8,%rsp
ffffffff80201895:	c3                   	retq   

ffffffff80201896 <isr_handler>:
ffffffff80201896:	f3 c3                	repz retq 

ffffffff80201898 <irq_handler>:
ffffffff80201898:	48 83 ec 08          	sub    $0x8,%rsp
ffffffff8020189c:	be 20 00 00 00       	mov    $0x20,%esi
ffffffff802018a1:	bf 20 00 00 00       	mov    $0x20,%edi
ffffffff802018a6:	e8 c7 04 00 00       	callq  ffffffff80201d72 <outb>
ffffffff802018ab:	48 83 c4 80          	add    $0xffffffffffffff80,%rsp
ffffffff802018af:	b9 10 00 00 00       	mov    $0x10,%ecx
ffffffff802018b4:	48 89 e7             	mov    %rsp,%rdi
ffffffff802018b7:	48 8d b4 24 90 00 00 	lea    0x90(%rsp),%rsi
ffffffff802018be:	00 
ffffffff802018bf:	f3 48 a5             	rep movsq %ds:(%rsi),%es:(%rdi)
ffffffff802018c2:	48 8d 05 37 6a 01 00 	lea    0x16a37(%rip),%rax        # ffffffff80218300 <int_handlers>
ffffffff802018c9:	ff 90 00 01 00 00    	callq  *0x100(%rax)
ffffffff802018cf:	48 81 c4 88 00 00 00 	add    $0x88,%rsp
ffffffff802018d6:	c3                   	retq   

ffffffff802018d7 <irq_handler2>:
ffffffff802018d7:	55                   	push   %rbp
ffffffff802018d8:	53                   	push   %rbx
ffffffff802018d9:	48 83 ec 08          	sub    $0x8,%rsp
ffffffff802018dd:	48 8b 47 48          	mov    0x48(%rdi),%rax
ffffffff802018e1:	48 85 c0             	test   %rax,%rax
ffffffff802018e4:	75 0e                	jne    ffffffff802018f4 <irq_handler2+0x1d>
ffffffff802018e6:	48 8d 3d e3 28 00 00 	lea    0x28e3(%rip),%rdi        # ffffffff802041d0 <_x86_64_asm_ltr+0x238>
ffffffff802018ed:	e8 1e 09 00 00       	callq  ffffffff80202210 <kprintf>
ffffffff802018f2:	eb fe                	jmp    ffffffff802018f2 <irq_handler2+0x1b>
ffffffff802018f4:	48 89 fb             	mov    %rdi,%rbx
ffffffff802018f7:	48 83 f8 0a          	cmp    $0xa,%rax
ffffffff802018fb:	75 13                	jne    ffffffff80201910 <irq_handler2+0x39>
ffffffff802018fd:	48 8d 3d f4 28 00 00 	lea    0x28f4(%rip),%rdi        # ffffffff802041f8 <_x86_64_asm_ltr+0x260>
ffffffff80201904:	b8 00 00 00 00       	mov    $0x0,%eax
ffffffff80201909:	e8 02 09 00 00       	callq  ffffffff80202210 <kprintf>
ffffffff8020190e:	eb fe                	jmp    ffffffff8020190e <irq_handler2+0x37>
ffffffff80201910:	48 83 f8 0d          	cmp    $0xd,%rax
ffffffff80201914:	75 13                	jne    ffffffff80201929 <irq_handler2+0x52>
ffffffff80201916:	48 8d 3d 0b 29 00 00 	lea    0x290b(%rip),%rdi        # ffffffff80204228 <_x86_64_asm_ltr+0x290>
ffffffff8020191d:	b8 00 00 00 00       	mov    $0x0,%eax
ffffffff80201922:	e8 e9 08 00 00       	callq  ffffffff80202210 <kprintf>
ffffffff80201927:	eb fe                	jmp    ffffffff80201927 <irq_handler2+0x50>
ffffffff80201929:	48 83 f8 0e          	cmp    $0xe,%rax
ffffffff8020192d:	75 08                	jne    ffffffff80201937 <irq_handler2+0x60>
ffffffff8020192f:	90                   	nop
ffffffff80201930:	e8 a7 0e 00 00       	callq  ffffffff802027dc <pageFault>
ffffffff80201935:	eb 4e                	jmp    ffffffff80201985 <irq_handler2+0xae>
ffffffff80201937:	48 3d 80 00 00 00    	cmp    $0x80,%rax
ffffffff8020193d:	75 46                	jne    ffffffff80201985 <irq_handler2+0xae>
ffffffff8020193f:	48 8b 6f 38          	mov    0x38(%rdi),%rbp
ffffffff80201943:	48 8b 4f 20          	mov    0x20(%rdi),%rcx
ffffffff80201947:	48 8b 57 28          	mov    0x28(%rdi),%rdx
ffffffff8020194b:	48 8b 77 30          	mov    0x30(%rdi),%rsi
ffffffff8020194f:	48 89 ef             	mov    %rbp,%rdi
ffffffff80201952:	e8 1d f2 ff ff       	callq  ffffffff80200b74 <syscall>
ffffffff80201957:	48 89 43 38          	mov    %rax,0x38(%rbx)
ffffffff8020195b:	48 83 fd 07          	cmp    $0x7,%rbp
ffffffff8020195f:	75 15                	jne    ffffffff80201976 <irq_handler2+0x9f>
ffffffff80201961:	48 8d 15 e0 8d 01 00 	lea    0x18de0(%rip),%rdx        # ffffffff8021a748 <current>
ffffffff80201968:	48 8b 12             	mov    (%rdx),%rdx
ffffffff8020196b:	48 8b 52 10          	mov    0x10(%rdx),%rdx
ffffffff8020196f:	48 89 82 c8 00 00 00 	mov    %rax,0xc8(%rdx)
ffffffff80201976:	be 20 00 00 00       	mov    $0x20,%esi
ffffffff8020197b:	bf a0 00 00 00       	mov    $0xa0,%edi
ffffffff80201980:	e8 ed 03 00 00       	callq  ffffffff80201d72 <outb>
ffffffff80201985:	be 20 00 00 00       	mov    $0x20,%esi
ffffffff8020198a:	bf 20 00 00 00       	mov    $0x20,%edi
ffffffff8020198f:	e8 de 03 00 00       	callq  ffffffff80201d72 <outb>
ffffffff80201994:	48 83 c4 08          	add    $0x8,%rsp
ffffffff80201998:	5b                   	pop    %rbx
ffffffff80201999:	5d                   	pop    %rbp
ffffffff8020199a:	c3                   	retq   

ffffffff8020199b <irq_handler1>:
ffffffff8020199b:	48 83 ec 08          	sub    $0x8,%rsp
ffffffff8020199f:	48 8d 05 72 56 00 00 	lea    0x5672(%rip),%rax        # ffffffff80207018 <i>
ffffffff802019a6:	ff 00                	incl   (%rax)
ffffffff802019a8:	bf 60 00 00 00       	mov    $0x60,%edi
ffffffff802019ad:	e8 c6 03 00 00       	callq  ffffffff80201d78 <inb>
ffffffff802019b2:	3c 1d                	cmp    $0x1d,%al
ffffffff802019b4:	75 12                	jne    ffffffff802019c8 <irq_handler1+0x2d>
ffffffff802019b6:	48 8d 05 53 56 00 00 	lea    0x5653(%rip),%rax        # ffffffff80207010 <controlkey>
ffffffff802019bd:	c7 00 01 00 00 00    	movl   $0x1,(%rax)
ffffffff802019c3:	e9 96 03 00 00       	jmpq   ffffffff80201d5e <irq_handler1+0x3c3>
ffffffff802019c8:	3c 9d                	cmp    $0x9d,%al
ffffffff802019ca:	75 12                	jne    ffffffff802019de <irq_handler1+0x43>
ffffffff802019cc:	48 8d 05 3d 56 00 00 	lea    0x563d(%rip),%rax        # ffffffff80207010 <controlkey>
ffffffff802019d3:	c7 00 00 00 00 00    	movl   $0x0,(%rax)
ffffffff802019d9:	e9 80 03 00 00       	jmpq   ffffffff80201d5e <irq_handler1+0x3c3>
ffffffff802019de:	0f b6 c8             	movzbl %al,%ecx
ffffffff802019e1:	48 8d 15 28 56 00 00 	lea    0x5628(%rip),%rdx        # ffffffff80207010 <controlkey>
ffffffff802019e8:	83 3a 01             	cmpl   $0x1,(%rdx)
ffffffff802019eb:	75 2f                	jne    ffffffff80201a1c <irq_handler1+0x81>
ffffffff802019ed:	84 c0                	test   %al,%al
ffffffff802019ef:	0f 88 69 03 00 00    	js     ffffffff80201d5e <irq_handler1+0x3c3>
ffffffff802019f5:	48 63 c9             	movslq %ecx,%rcx
ffffffff802019f8:	48 8d 05 21 8f 01 00 	lea    0x18f21(%rip),%rax        # ffffffff8021a920 <kbdus>
ffffffff802019ff:	0f b6 34 08          	movzbl (%rax,%rcx,1),%esi
ffffffff80201a03:	83 ee 20             	sub    $0x20,%esi
ffffffff80201a06:	48 8d 3d 0d 26 00 00 	lea    0x260d(%rip),%rdi        # ffffffff8020401a <_x86_64_asm_ltr+0x82>
ffffffff80201a0d:	b8 00 00 00 00       	mov    $0x0,%eax
ffffffff80201a12:	e8 f9 07 00 00       	callq  ffffffff80202210 <kprintf>
ffffffff80201a17:	e9 42 03 00 00       	jmpq   ffffffff80201d5e <irq_handler1+0x3c3>
ffffffff80201a1c:	3c 2a                	cmp    $0x2a,%al
ffffffff80201a1e:	74 04                	je     ffffffff80201a24 <irq_handler1+0x89>
ffffffff80201a20:	3c 36                	cmp    $0x36,%al
ffffffff80201a22:	75 12                	jne    ffffffff80201a36 <irq_handler1+0x9b>
ffffffff80201a24:	48 8d 05 e1 55 00 00 	lea    0x55e1(%rip),%rax        # ffffffff8020700c <shiftkey>
ffffffff80201a2b:	c7 00 01 00 00 00    	movl   $0x1,(%rax)
ffffffff80201a31:	e9 28 03 00 00       	jmpq   ffffffff80201d5e <irq_handler1+0x3c3>
ffffffff80201a36:	3c aa                	cmp    $0xaa,%al
ffffffff80201a38:	74 04                	je     ffffffff80201a3e <irq_handler1+0xa3>
ffffffff80201a3a:	3c b6                	cmp    $0xb6,%al
ffffffff80201a3c:	75 12                	jne    ffffffff80201a50 <irq_handler1+0xb5>
ffffffff80201a3e:	48 8d 05 c7 55 00 00 	lea    0x55c7(%rip),%rax        # ffffffff8020700c <shiftkey>
ffffffff80201a45:	c7 00 00 00 00 00    	movl   $0x0,(%rax)
ffffffff80201a4b:	e9 0e 03 00 00       	jmpq   ffffffff80201d5e <irq_handler1+0x3c3>
ffffffff80201a50:	3c 3a                	cmp    $0x3a,%al
ffffffff80201a52:	75 3a                	jne    ffffffff80201a8e <irq_handler1+0xf3>
ffffffff80201a54:	48 8d 05 b9 55 00 00 	lea    0x55b9(%rip),%rax        # ffffffff80207014 <capskey>
ffffffff80201a5b:	8b 00                	mov    (%rax),%eax
ffffffff80201a5d:	85 c0                	test   %eax,%eax
ffffffff80201a5f:	75 12                	jne    ffffffff80201a73 <irq_handler1+0xd8>
ffffffff80201a61:	48 8d 05 ac 55 00 00 	lea    0x55ac(%rip),%rax        # ffffffff80207014 <capskey>
ffffffff80201a68:	c7 00 01 00 00 00    	movl   $0x1,(%rax)
ffffffff80201a6e:	e9 eb 02 00 00       	jmpq   ffffffff80201d5e <irq_handler1+0x3c3>
ffffffff80201a73:	83 f8 01             	cmp    $0x1,%eax
ffffffff80201a76:	0f 85 e2 02 00 00    	jne    ffffffff80201d5e <irq_handler1+0x3c3>
ffffffff80201a7c:	48 8d 05 91 55 00 00 	lea    0x5591(%rip),%rax        # ffffffff80207014 <capskey>
ffffffff80201a83:	c7 00 00 00 00 00    	movl   $0x0,(%rax)
ffffffff80201a89:	e9 d0 02 00 00       	jmpq   ffffffff80201d5e <irq_handler1+0x3c3>
ffffffff80201a8e:	48 8d 15 7f 55 00 00 	lea    0x557f(%rip),%rdx        # ffffffff80207014 <capskey>
ffffffff80201a95:	8b 12                	mov    (%rdx),%edx
ffffffff80201a97:	83 fa 01             	cmp    $0x1,%edx
ffffffff80201a9a:	75 2f                	jne    ffffffff80201acb <irq_handler1+0x130>
ffffffff80201a9c:	84 c0                	test   %al,%al
ffffffff80201a9e:	0f 88 ba 02 00 00    	js     ffffffff80201d5e <irq_handler1+0x3c3>
ffffffff80201aa4:	48 63 c9             	movslq %ecx,%rcx
ffffffff80201aa7:	48 8d 05 72 8e 01 00 	lea    0x18e72(%rip),%rax        # ffffffff8021a920 <kbdus>
ffffffff80201aae:	0f b6 34 08          	movzbl (%rax,%rcx,1),%esi
ffffffff80201ab2:	83 ee 20             	sub    $0x20,%esi
ffffffff80201ab5:	48 8d 3d 5f 25 00 00 	lea    0x255f(%rip),%rdi        # ffffffff8020401b <_x86_64_asm_ltr+0x83>
ffffffff80201abc:	b8 00 00 00 00       	mov    $0x0,%eax
ffffffff80201ac1:	e8 4a 07 00 00       	callq  ffffffff80202210 <kprintf>
ffffffff80201ac6:	e9 93 02 00 00       	jmpq   ffffffff80201d5e <irq_handler1+0x3c3>
ffffffff80201acb:	48 8d 35 3a 55 00 00 	lea    0x553a(%rip),%rsi        # ffffffff8020700c <shiftkey>
ffffffff80201ad2:	83 3e 01             	cmpl   $0x1,(%rsi)
ffffffff80201ad5:	0f 85 b0 01 00 00    	jne    ffffffff80201c8b <irq_handler1+0x2f0>
ffffffff80201adb:	84 c0                	test   %al,%al
ffffffff80201add:	0f 88 7b 02 00 00    	js     ffffffff80201d5e <irq_handler1+0x3c3>
ffffffff80201ae3:	48 63 c9             	movslq %ecx,%rcx
ffffffff80201ae6:	48 8d 05 33 8e 01 00 	lea    0x18e33(%rip),%rax        # ffffffff8021a920 <kbdus>
ffffffff80201aed:	0f b6 04 08          	movzbl (%rax,%rcx,1),%eax
ffffffff80201af1:	3c 31                	cmp    $0x31,%al
ffffffff80201af3:	0f 84 b2 00 00 00    	je     ffffffff80201bab <irq_handler1+0x210>
ffffffff80201af9:	3c 32                	cmp    $0x32,%al
ffffffff80201afb:	0f 84 b4 00 00 00    	je     ffffffff80201bb5 <irq_handler1+0x21a>
ffffffff80201b01:	3c 33                	cmp    $0x33,%al
ffffffff80201b03:	0f 84 b6 00 00 00    	je     ffffffff80201bbf <irq_handler1+0x224>
ffffffff80201b09:	3c 34                	cmp    $0x34,%al
ffffffff80201b0b:	0f 1f 44 00 00       	nopl   0x0(%rax,%rax,1)
ffffffff80201b10:	0f 84 b0 00 00 00    	je     ffffffff80201bc6 <irq_handler1+0x22b>
ffffffff80201b16:	3c 35                	cmp    $0x35,%al
ffffffff80201b18:	0f 84 af 00 00 00    	je     ffffffff80201bcd <irq_handler1+0x232>
ffffffff80201b1e:	3c 36                	cmp    $0x36,%al
ffffffff80201b20:	0f 84 ae 00 00 00    	je     ffffffff80201bd4 <irq_handler1+0x239>
ffffffff80201b26:	3c 37                	cmp    $0x37,%al
ffffffff80201b28:	0f 84 ad 00 00 00    	je     ffffffff80201bdb <irq_handler1+0x240>
ffffffff80201b2e:	3c 38                	cmp    $0x38,%al
ffffffff80201b30:	0f 84 ac 00 00 00    	je     ffffffff80201be2 <irq_handler1+0x247>
ffffffff80201b36:	3c 39                	cmp    $0x39,%al
ffffffff80201b38:	0f 84 ab 00 00 00    	je     ffffffff80201be9 <irq_handler1+0x24e>
ffffffff80201b3e:	3c 30                	cmp    $0x30,%al
ffffffff80201b40:	0f 84 aa 00 00 00    	je     ffffffff80201bf0 <irq_handler1+0x255>
ffffffff80201b46:	3c 2d                	cmp    $0x2d,%al
ffffffff80201b48:	0f 84 a9 00 00 00    	je     ffffffff80201bf7 <irq_handler1+0x25c>
ffffffff80201b4e:	3c 3d                	cmp    $0x3d,%al
ffffffff80201b50:	0f 84 a8 00 00 00    	je     ffffffff80201bfe <irq_handler1+0x263>
ffffffff80201b56:	3c 5b                	cmp    $0x5b,%al
ffffffff80201b58:	0f 84 a7 00 00 00    	je     ffffffff80201c05 <irq_handler1+0x26a>
ffffffff80201b5e:	3c 5d                	cmp    $0x5d,%al
ffffffff80201b60:	0f 84 a6 00 00 00    	je     ffffffff80201c0c <irq_handler1+0x271>
ffffffff80201b66:	3c 5c                	cmp    $0x5c,%al
ffffffff80201b68:	0f 84 a5 00 00 00    	je     ffffffff80201c13 <irq_handler1+0x278>
ffffffff80201b6e:	3c 3b                	cmp    $0x3b,%al
ffffffff80201b70:	0f 84 a4 00 00 00    	je     ffffffff80201c1a <irq_handler1+0x27f>
ffffffff80201b76:	3c 27                	cmp    $0x27,%al
ffffffff80201b78:	0f 84 a3 00 00 00    	je     ffffffff80201c21 <irq_handler1+0x286>
ffffffff80201b7e:	3c 2c                	cmp    $0x2c,%al
ffffffff80201b80:	0f 84 a2 00 00 00    	je     ffffffff80201c28 <irq_handler1+0x28d>
ffffffff80201b86:	3c 2e                	cmp    $0x2e,%al
ffffffff80201b88:	0f 84 a1 00 00 00    	je     ffffffff80201c2f <irq_handler1+0x294>
ffffffff80201b8e:	3c 2f                	cmp    $0x2f,%al
ffffffff80201b90:	0f 84 a0 00 00 00    	je     ffffffff80201c36 <irq_handler1+0x29b>
ffffffff80201b96:	3c 60                	cmp    $0x60,%al
ffffffff80201b98:	0f 84 9f 00 00 00    	je     ffffffff80201c3d <irq_handler1+0x2a2>
ffffffff80201b9e:	8d 48 e0             	lea    -0x20(%rax),%ecx
ffffffff80201ba1:	85 d2                	test   %edx,%edx
ffffffff80201ba3:	0f 44 c1             	cmove  %ecx,%eax
ffffffff80201ba6:	e9 97 00 00 00       	jmpq   ffffffff80201c42 <irq_handler1+0x2a7>
ffffffff80201bab:	b8 21 00 00 00       	mov    $0x21,%eax
ffffffff80201bb0:	e9 8d 00 00 00       	jmpq   ffffffff80201c42 <irq_handler1+0x2a7>
ffffffff80201bb5:	b8 40 00 00 00       	mov    $0x40,%eax
ffffffff80201bba:	e9 83 00 00 00       	jmpq   ffffffff80201c42 <irq_handler1+0x2a7>
ffffffff80201bbf:	b8 23 00 00 00       	mov    $0x23,%eax
ffffffff80201bc4:	eb 7c                	jmp    ffffffff80201c42 <irq_handler1+0x2a7>
ffffffff80201bc6:	b8 24 00 00 00       	mov    $0x24,%eax
ffffffff80201bcb:	eb 75                	jmp    ffffffff80201c42 <irq_handler1+0x2a7>
ffffffff80201bcd:	b8 25 00 00 00       	mov    $0x25,%eax
ffffffff80201bd2:	eb 6e                	jmp    ffffffff80201c42 <irq_handler1+0x2a7>
ffffffff80201bd4:	b8 5e 00 00 00       	mov    $0x5e,%eax
ffffffff80201bd9:	eb 67                	jmp    ffffffff80201c42 <irq_handler1+0x2a7>
ffffffff80201bdb:	b8 26 00 00 00       	mov    $0x26,%eax
ffffffff80201be0:	eb 60                	jmp    ffffffff80201c42 <irq_handler1+0x2a7>
ffffffff80201be2:	b8 2a 00 00 00       	mov    $0x2a,%eax
ffffffff80201be7:	eb 59                	jmp    ffffffff80201c42 <irq_handler1+0x2a7>
ffffffff80201be9:	b8 28 00 00 00       	mov    $0x28,%eax
ffffffff80201bee:	eb 52                	jmp    ffffffff80201c42 <irq_handler1+0x2a7>
ffffffff80201bf0:	b8 29 00 00 00       	mov    $0x29,%eax
ffffffff80201bf5:	eb 4b                	jmp    ffffffff80201c42 <irq_handler1+0x2a7>
ffffffff80201bf7:	b8 5f 00 00 00       	mov    $0x5f,%eax
ffffffff80201bfc:	eb 44                	jmp    ffffffff80201c42 <irq_handler1+0x2a7>
ffffffff80201bfe:	b8 2b 00 00 00       	mov    $0x2b,%eax
ffffffff80201c03:	eb 3d                	jmp    ffffffff80201c42 <irq_handler1+0x2a7>
ffffffff80201c05:	b8 7b 00 00 00       	mov    $0x7b,%eax
ffffffff80201c0a:	eb 36                	jmp    ffffffff80201c42 <irq_handler1+0x2a7>
ffffffff80201c0c:	b8 7d 00 00 00       	mov    $0x7d,%eax
ffffffff80201c11:	eb 2f                	jmp    ffffffff80201c42 <irq_handler1+0x2a7>
ffffffff80201c13:	b8 7c 00 00 00       	mov    $0x7c,%eax
ffffffff80201c18:	eb 28                	jmp    ffffffff80201c42 <irq_handler1+0x2a7>
ffffffff80201c1a:	b8 3a 00 00 00       	mov    $0x3a,%eax
ffffffff80201c1f:	eb 21                	jmp    ffffffff80201c42 <irq_handler1+0x2a7>
ffffffff80201c21:	b8 22 00 00 00       	mov    $0x22,%eax
ffffffff80201c26:	eb 1a                	jmp    ffffffff80201c42 <irq_handler1+0x2a7>
ffffffff80201c28:	b8 3c 00 00 00       	mov    $0x3c,%eax
ffffffff80201c2d:	eb 13                	jmp    ffffffff80201c42 <irq_handler1+0x2a7>
ffffffff80201c2f:	b8 3e 00 00 00       	mov    $0x3e,%eax
ffffffff80201c34:	eb 0c                	jmp    ffffffff80201c42 <irq_handler1+0x2a7>
ffffffff80201c36:	b8 3f 00 00 00       	mov    $0x3f,%eax
ffffffff80201c3b:	eb 05                	jmp    ffffffff80201c42 <irq_handler1+0x2a7>
ffffffff80201c3d:	b8 7e 00 00 00       	mov    $0x7e,%eax
ffffffff80201c42:	48 8d 15 bb 53 00 00 	lea    0x53bb(%rip),%rdx        # ffffffff80207004 <index>
ffffffff80201c49:	8b 12                	mov    (%rdx),%edx
ffffffff80201c4b:	48 63 ca             	movslq %edx,%rcx
ffffffff80201c4e:	48 8d 35 cb 53 00 00 	lea    0x53cb(%rip),%rsi        # ffffffff80207020 <buffer>
ffffffff80201c55:	88 04 0e             	mov    %al,(%rsi,%rcx,1)
ffffffff80201c58:	48 8d 05 a1 53 00 00 	lea    0x53a1(%rip),%rax        # ffffffff80207000 <localEcho>
ffffffff80201c5f:	83 38 01             	cmpl   $0x1,(%rax)
ffffffff80201c62:	75 19                	jne    ffffffff80201c7d <irq_handler1+0x2e2>
ffffffff80201c64:	0f b6 34 0e          	movzbl (%rsi,%rcx,1),%esi
ffffffff80201c68:	40 0f be f6          	movsbl %sil,%esi
ffffffff80201c6c:	48 8d 3d a8 23 00 00 	lea    0x23a8(%rip),%rdi        # ffffffff8020401b <_x86_64_asm_ltr+0x83>
ffffffff80201c73:	b8 00 00 00 00       	mov    $0x0,%eax
ffffffff80201c78:	e8 93 05 00 00       	callq  ffffffff80202210 <kprintf>
ffffffff80201c7d:	48 8d 05 80 53 00 00 	lea    0x5380(%rip),%rax        # ffffffff80207004 <index>
ffffffff80201c84:	ff 00                	incl   (%rax)
ffffffff80201c86:	e9 d3 00 00 00       	jmpq   ffffffff80201d5e <irq_handler1+0x3c3>
ffffffff80201c8b:	3c 0e                	cmp    $0xe,%al
ffffffff80201c8d:	75 3b                	jne    ffffffff80201cca <irq_handler1+0x32f>
ffffffff80201c8f:	48 8d 05 6a 53 00 00 	lea    0x536a(%rip),%rax        # ffffffff80207000 <localEcho>
ffffffff80201c96:	83 38 01             	cmpl   $0x1,(%rax)
ffffffff80201c99:	0f 85 bf 00 00 00    	jne    ffffffff80201d5e <irq_handler1+0x3c3>
ffffffff80201c9f:	48 8d 05 5e 53 00 00 	lea    0x535e(%rip),%rax        # ffffffff80207004 <index>
ffffffff80201ca6:	8b 00                	mov    (%rax),%eax
ffffffff80201ca8:	85 c0                	test   %eax,%eax
ffffffff80201caa:	0f 8e ae 00 00 00    	jle    ffffffff80201d5e <irq_handler1+0x3c3>
ffffffff80201cb0:	ff c8                	dec    %eax
ffffffff80201cb2:	48 8d 15 4b 53 00 00 	lea    0x534b(%rip),%rdx        # ffffffff80207004 <index>
ffffffff80201cb9:	89 02                	mov    %eax,(%rdx)
ffffffff80201cbb:	b8 00 00 00 00       	mov    $0x0,%eax
ffffffff80201cc0:	e8 cd 00 00 00       	callq  ffffffff80201d92 <backspace>
ffffffff80201cc5:	e9 94 00 00 00       	jmpq   ffffffff80201d5e <irq_handler1+0x3c3>
ffffffff80201cca:	3c 01                	cmp    $0x1,%al
ffffffff80201ccc:	40 0f 94 c6          	sete   %sil
ffffffff80201cd0:	3c 0f                	cmp    $0xf,%al
ffffffff80201cd2:	0f 94 c2             	sete   %dl
ffffffff80201cd5:	40 08 d6             	or     %dl,%sil
ffffffff80201cd8:	0f 85 80 00 00 00    	jne    ffffffff80201d5e <irq_handler1+0x3c3>
ffffffff80201cde:	3c 53                	cmp    $0x53,%al
ffffffff80201ce0:	74 7c                	je     ffffffff80201d5e <irq_handler1+0x3c3>
ffffffff80201ce2:	3c 1c                	cmp    $0x1c,%al
ffffffff80201ce4:	75 0f                	jne    ffffffff80201cf5 <irq_handler1+0x35a>
ffffffff80201ce6:	48 8d 05 1b 53 00 00 	lea    0x531b(%rip),%rax        # ffffffff80207008 <scanFlag>
ffffffff80201ced:	c7 00 00 00 00 00    	movl   $0x0,(%rax)
ffffffff80201cf3:	eb 69                	jmp    ffffffff80201d5e <irq_handler1+0x3c3>
ffffffff80201cf5:	8d 50 b8             	lea    -0x48(%rax),%edx
ffffffff80201cf8:	f6 c2 f7             	test   $0xf7,%dl
ffffffff80201cfb:	74 61                	je     ffffffff80201d5e <irq_handler1+0x3c3>
ffffffff80201cfd:	8d 50 b5             	lea    -0x4b(%rax),%edx
ffffffff80201d00:	f6 c2 fd             	test   $0xfd,%dl
ffffffff80201d03:	74 59                	je     ffffffff80201d5e <irq_handler1+0x3c3>
ffffffff80201d05:	84 c0                	test   %al,%al
ffffffff80201d07:	78 55                	js     ffffffff80201d5e <irq_handler1+0x3c3>
ffffffff80201d09:	48 63 c9             	movslq %ecx,%rcx
ffffffff80201d0c:	48 8d 05 0d 8c 01 00 	lea    0x18c0d(%rip),%rax        # ffffffff8021a920 <kbdus>
ffffffff80201d13:	0f b6 34 08          	movzbl (%rax,%rcx,1),%esi
ffffffff80201d17:	48 8d 05 e6 52 00 00 	lea    0x52e6(%rip),%rax        # ffffffff80207004 <index>
ffffffff80201d1e:	8b 00                	mov    (%rax),%eax
ffffffff80201d20:	48 63 d0             	movslq %eax,%rdx
ffffffff80201d23:	48 8d 0d f6 52 00 00 	lea    0x52f6(%rip),%rcx        # ffffffff80207020 <buffer>
ffffffff80201d2a:	40 88 34 11          	mov    %sil,(%rcx,%rdx,1)
ffffffff80201d2e:	48 8d 15 cb 52 00 00 	lea    0x52cb(%rip),%rdx        # ffffffff80207000 <localEcho>
ffffffff80201d35:	83 3a 01             	cmpl   $0x1,(%rdx)
ffffffff80201d38:	75 1b                	jne    ffffffff80201d55 <irq_handler1+0x3ba>
ffffffff80201d3a:	48 98                	cltq   
ffffffff80201d3c:	0f b6 34 01          	movzbl (%rcx,%rax,1),%esi
ffffffff80201d40:	40 0f be f6          	movsbl %sil,%esi
ffffffff80201d44:	48 8d 3d d0 22 00 00 	lea    0x22d0(%rip),%rdi        # ffffffff8020401b <_x86_64_asm_ltr+0x83>
ffffffff80201d4b:	b8 00 00 00 00       	mov    $0x0,%eax
ffffffff80201d50:	e8 bb 04 00 00       	callq  ffffffff80202210 <kprintf>
ffffffff80201d55:	48 8d 05 a8 52 00 00 	lea    0x52a8(%rip),%rax        # ffffffff80207004 <index>
ffffffff80201d5c:	ff 00                	incl   (%rax)
ffffffff80201d5e:	be 20 00 00 00       	mov    $0x20,%esi
ffffffff80201d63:	bf 20 00 00 00       	mov    $0x20,%edi
ffffffff80201d68:	e8 05 00 00 00       	callq  ffffffff80201d72 <outb>
ffffffff80201d6d:	48 83 c4 08          	add    $0x8,%rsp
ffffffff80201d71:	c3                   	retq   

ffffffff80201d72 <outb>:
ffffffff80201d72:	89 fa                	mov    %edi,%edx
ffffffff80201d74:	89 f0                	mov    %esi,%eax
ffffffff80201d76:	ee                   	out    %al,(%dx)
ffffffff80201d77:	c3                   	retq   

ffffffff80201d78 <inb>:
ffffffff80201d78:	89 fa                	mov    %edi,%edx
ffffffff80201d7a:	ec                   	in     (%dx),%al
ffffffff80201d7b:	c3                   	retq   

ffffffff80201d7c <outl>:
ffffffff80201d7c:	89 fa                	mov    %edi,%edx
ffffffff80201d7e:	89 f0                	mov    %esi,%eax
ffffffff80201d80:	ef                   	out    %eax,(%dx)
ffffffff80201d81:	c3                   	retq   

ffffffff80201d82 <inl>:
ffffffff80201d82:	89 fa                	mov    %edi,%edx
ffffffff80201d84:	ed                   	in     (%dx),%eax
ffffffff80201d85:	c3                   	retq   
ffffffff80201d86:	66 2e 0f 1f 84 00 00 	nopw   %cs:0x0(%rax,%rax,1)
ffffffff80201d8d:	00 00 00 

ffffffff80201d90 <printCursor>:
ffffffff80201d90:	f3 c3                	repz retq 

ffffffff80201d92 <backspace>:
ffffffff80201d92:	48 83 ec 08          	sub    $0x8,%rsp
ffffffff80201d96:	48 8d 05 03 8c 01 00 	lea    0x18c03(%rip),%rax        # ffffffff8021a9a0 <video>
ffffffff80201d9d:	48 8b 10             	mov    (%rax),%rdx
ffffffff80201da0:	48 8d 4a ff          	lea    -0x1(%rdx),%rcx
ffffffff80201da4:	48 89 08             	mov    %rcx,(%rax)
ffffffff80201da7:	c6 42 ff 00          	movb   $0x0,-0x1(%rdx)
ffffffff80201dab:	48 8b 10             	mov    (%rax),%rdx
ffffffff80201dae:	48 8d 4a ff          	lea    -0x1(%rdx),%rcx
ffffffff80201db2:	48 89 08             	mov    %rcx,(%rax)
ffffffff80201db5:	c6 42 ff 00          	movb   $0x0,-0x1(%rdx)
ffffffff80201db9:	48 8d 05 60 54 00 00 	lea    0x5460(%rip),%rax        # ffffffff80207220 <xp>
ffffffff80201dc0:	8b 00                	mov    (%rax),%eax
ffffffff80201dc2:	85 c0                	test   %eax,%eax
ffffffff80201dc4:	75 28                	jne    ffffffff80201dee <backspace+0x5c>
ffffffff80201dc6:	48 8d 05 df 8b 01 00 	lea    0x18bdf(%rip),%rax        # ffffffff8021a9ac <yp>
ffffffff80201dcd:	8b 00                	mov    (%rax),%eax
ffffffff80201dcf:	83 f8 01             	cmp    $0x1,%eax
ffffffff80201dd2:	7e 29                	jle    ffffffff80201dfd <backspace+0x6b>
ffffffff80201dd4:	48 8d 15 45 54 00 00 	lea    0x5445(%rip),%rdx        # ffffffff80207220 <xp>
ffffffff80201ddb:	c7 02 50 00 00 00    	movl   $0x50,(%rdx)
ffffffff80201de1:	ff c8                	dec    %eax
ffffffff80201de3:	48 8d 15 c2 8b 01 00 	lea    0x18bc2(%rip),%rdx        # ffffffff8021a9ac <yp>
ffffffff80201dea:	89 02                	mov    %eax,(%rdx)
ffffffff80201dec:	eb 0f                	jmp    ffffffff80201dfd <backspace+0x6b>
ffffffff80201dee:	85 c0                	test   %eax,%eax
ffffffff80201df0:	7e 0b                	jle    ffffffff80201dfd <backspace+0x6b>
ffffffff80201df2:	ff c8                	dec    %eax
ffffffff80201df4:	48 8d 15 25 54 00 00 	lea    0x5425(%rip),%rdx        # ffffffff80207220 <xp>
ffffffff80201dfb:	89 02                	mov    %eax,(%rdx)
ffffffff80201dfd:	b8 00 00 00 00       	mov    $0x0,%eax
ffffffff80201e02:	e8 89 ff ff ff       	callq  ffffffff80201d90 <printCursor>
ffffffff80201e07:	48 83 c4 08          	add    $0x8,%rsp
ffffffff80201e0b:	c3                   	retq   

ffffffff80201e0c <clearScreen>:
ffffffff80201e0c:	53                   	push   %rbx
ffffffff80201e0d:	48 8d 05 0c 54 00 00 	lea    0x540c(%rip),%rax        # ffffffff80207220 <xp>
ffffffff80201e14:	c7 00 00 00 00 00    	movl   $0x0,(%rax)
ffffffff80201e1a:	48 8d 1d 8b 8b 01 00 	lea    0x18b8b(%rip),%rbx        # ffffffff8021a9ac <yp>
ffffffff80201e21:	c7 03 01 00 00 00    	movl   $0x1,(%rbx)
ffffffff80201e27:	ba 60 0e 00 00       	mov    $0xe60,%edx
ffffffff80201e2c:	be 00 00 00 00       	mov    $0x0,%esi
ffffffff80201e31:	48 c7 c7 a0 80 0b 80 	mov    $0xffffffff800b80a0,%rdi
ffffffff80201e38:	e8 93 06 00 00       	callq  ffffffff802024d0 <memset>
ffffffff80201e3d:	69 03 a0 00 00 00    	imul   $0xa0,(%rbx),%eax
ffffffff80201e43:	48 98                	cltq   
ffffffff80201e45:	48 2d 00 80 f4 7f    	sub    $0x7ff48000,%rax
ffffffff80201e4b:	48 8d 15 4e 8b 01 00 	lea    0x18b4e(%rip),%rdx        # ffffffff8021a9a0 <video>
ffffffff80201e52:	48 89 02             	mov    %rax,(%rdx)
ffffffff80201e55:	b8 00 00 00 00       	mov    $0x0,%eax
ffffffff80201e5a:	e8 31 ff ff ff       	callq  ffffffff80201d90 <printCursor>
ffffffff80201e5f:	5b                   	pop    %rbx
ffffffff80201e60:	c3                   	retq   

ffffffff80201e61 <scroll>:
ffffffff80201e61:	53                   	push   %rbx
ffffffff80201e62:	48 8d 1d 43 8b 01 00 	lea    0x18b43(%rip),%rbx        # ffffffff8021a9ac <yp>
ffffffff80201e69:	c7 03 16 00 00 00    	movl   $0x16,(%rbx)
ffffffff80201e6f:	ba c0 0d 00 00       	mov    $0xdc0,%edx
ffffffff80201e74:	48 c7 c6 40 81 0b 80 	mov    $0xffffffff800b8140,%rsi
ffffffff80201e7b:	48 c7 c7 a0 80 0b 80 	mov    $0xffffffff800b80a0,%rdi
ffffffff80201e82:	e8 8d 07 00 00       	callq  ffffffff80202614 <memcpy>
ffffffff80201e87:	ba a0 00 00 00       	mov    $0xa0,%edx
ffffffff80201e8c:	be 00 00 00 00       	mov    $0x0,%esi
ffffffff80201e91:	48 c7 c7 60 8e 0b 80 	mov    $0xffffffff800b8e60,%rdi
ffffffff80201e98:	e8 33 06 00 00       	callq  ffffffff802024d0 <memset>
ffffffff80201e9d:	69 03 a0 00 00 00    	imul   $0xa0,(%rbx),%eax
ffffffff80201ea3:	48 98                	cltq   
ffffffff80201ea5:	48 2d 00 80 f4 7f    	sub    $0x7ff48000,%rax
ffffffff80201eab:	48 8d 15 ee 8a 01 00 	lea    0x18aee(%rip),%rdx        # ffffffff8021a9a0 <video>
ffffffff80201eb2:	48 89 02             	mov    %rax,(%rdx)
ffffffff80201eb5:	5b                   	pop    %rbx
ffffffff80201eb6:	c3                   	retq   

ffffffff80201eb7 <write>:
ffffffff80201eb7:	48 8d 05 e2 8a 01 00 	lea    0x18ae2(%rip),%rax        # ffffffff8021a9a0 <video>
ffffffff80201ebe:	48 8b 10             	mov    (%rax),%rdx
ffffffff80201ec1:	48 8d 4a 01          	lea    0x1(%rdx),%rcx
ffffffff80201ec5:	48 89 08             	mov    %rcx,(%rax)
ffffffff80201ec8:	40 88 3a             	mov    %dil,(%rdx)
ffffffff80201ecb:	48 8b 10             	mov    (%rax),%rdx
ffffffff80201ece:	48 8d 4a 01          	lea    0x1(%rdx),%rcx
ffffffff80201ed2:	48 89 08             	mov    %rcx,(%rax)
ffffffff80201ed5:	48 8d 05 cc 8a 01 00 	lea    0x18acc(%rip),%rax        # ffffffff8021a9a8 <color>
ffffffff80201edc:	8b 00                	mov    (%rax),%eax
ffffffff80201ede:	88 02                	mov    %al,(%rdx)
ffffffff80201ee0:	48 8d 05 39 53 00 00 	lea    0x5339(%rip),%rax        # ffffffff80207220 <xp>
ffffffff80201ee7:	8b 00                	mov    (%rax),%eax
ffffffff80201ee9:	83 f8 4f             	cmp    $0x4f,%eax
ffffffff80201eec:	7f 0c                	jg     ffffffff80201efa <write+0x43>
ffffffff80201eee:	ff c0                	inc    %eax
ffffffff80201ef0:	48 8d 15 29 53 00 00 	lea    0x5329(%rip),%rdx        # ffffffff80207220 <xp>
ffffffff80201ef7:	89 02                	mov    %eax,(%rdx)
ffffffff80201ef9:	c3                   	retq   
ffffffff80201efa:	48 8d 05 1f 53 00 00 	lea    0x531f(%rip),%rax        # ffffffff80207220 <xp>
ffffffff80201f01:	c7 00 00 00 00 00    	movl   $0x0,(%rax)
ffffffff80201f07:	48 8d 05 9e 8a 01 00 	lea    0x18a9e(%rip),%rax        # ffffffff8021a9ac <yp>
ffffffff80201f0e:	8b 00                	mov    (%rax),%eax
ffffffff80201f10:	83 f8 14             	cmp    $0x14,%eax
ffffffff80201f13:	7f 0c                	jg     ffffffff80201f21 <write+0x6a>
ffffffff80201f15:	ff c0                	inc    %eax
ffffffff80201f17:	48 8d 15 8e 8a 01 00 	lea    0x18a8e(%rip),%rdx        # ffffffff8021a9ac <yp>
ffffffff80201f1e:	89 02                	mov    %eax,(%rdx)
ffffffff80201f20:	c3                   	retq   
ffffffff80201f21:	48 83 ec 08          	sub    $0x8,%rsp
ffffffff80201f25:	b8 00 00 00 00       	mov    $0x0,%eax
ffffffff80201f2a:	e8 32 ff ff ff       	callq  ffffffff80201e61 <scroll>
ffffffff80201f2f:	48 83 c4 08          	add    $0x8,%rsp
ffffffff80201f33:	c3                   	retq   

ffffffff80201f34 <convert>:
ffffffff80201f34:	41 56                	push   %r14
ffffffff80201f36:	41 55                	push   %r13
ffffffff80201f38:	41 54                	push   %r12
ffffffff80201f3a:	55                   	push   %rbp
ffffffff80201f3b:	53                   	push   %rbx
ffffffff80201f3c:	48 83 ec 20          	sub    $0x20,%rsp
ffffffff80201f40:	89 d5                	mov    %edx,%ebp
ffffffff80201f42:	89 d3                	mov    %edx,%ebx
ffffffff80201f44:	48 8d 4c 24 0c       	lea    0xc(%rsp),%rcx
ffffffff80201f49:	41 b8 00 00 00 00    	mov    $0x0,%r8d
ffffffff80201f4f:	48 63 f6             	movslq %esi,%rsi
ffffffff80201f52:	eb 03                	jmp    ffffffff80201f57 <convert+0x23>
ffffffff80201f54:	45 89 e8             	mov    %r13d,%r8d
ffffffff80201f57:	48 89 f8             	mov    %rdi,%rax
ffffffff80201f5a:	ba 00 00 00 00       	mov    $0x0,%edx
ffffffff80201f5f:	48 f7 f6             	div    %rsi
ffffffff80201f62:	83 fa 0f             	cmp    $0xf,%edx
ffffffff80201f65:	75 05                	jne    ffffffff80201f6c <convert+0x38>
ffffffff80201f67:	c6 01 66             	movb   $0x66,(%rcx)
ffffffff80201f6a:	eb 3b                	jmp    ffffffff80201fa7 <convert+0x73>
ffffffff80201f6c:	83 fa 0e             	cmp    $0xe,%edx
ffffffff80201f6f:	75 05                	jne    ffffffff80201f76 <convert+0x42>
ffffffff80201f71:	c6 01 65             	movb   $0x65,(%rcx)
ffffffff80201f74:	eb 31                	jmp    ffffffff80201fa7 <convert+0x73>
ffffffff80201f76:	83 fa 0d             	cmp    $0xd,%edx
ffffffff80201f79:	75 07                	jne    ffffffff80201f82 <convert+0x4e>
ffffffff80201f7b:	c6 01 64             	movb   $0x64,(%rcx)
ffffffff80201f7e:	66 90                	xchg   %ax,%ax
ffffffff80201f80:	eb 25                	jmp    ffffffff80201fa7 <convert+0x73>
ffffffff80201f82:	83 fa 0c             	cmp    $0xc,%edx
ffffffff80201f85:	75 05                	jne    ffffffff80201f8c <convert+0x58>
ffffffff80201f87:	c6 01 63             	movb   $0x63,(%rcx)
ffffffff80201f8a:	eb 1b                	jmp    ffffffff80201fa7 <convert+0x73>
ffffffff80201f8c:	83 fa 0b             	cmp    $0xb,%edx
ffffffff80201f8f:	90                   	nop
ffffffff80201f90:	75 05                	jne    ffffffff80201f97 <convert+0x63>
ffffffff80201f92:	c6 01 62             	movb   $0x62,(%rcx)
ffffffff80201f95:	eb 10                	jmp    ffffffff80201fa7 <convert+0x73>
ffffffff80201f97:	83 fa 0a             	cmp    $0xa,%edx
ffffffff80201f9a:	75 06                	jne    ffffffff80201fa2 <convert+0x6e>
ffffffff80201f9c:	c6 01 61             	movb   $0x61,(%rcx)
ffffffff80201f9f:	90                   	nop
ffffffff80201fa0:	eb 05                	jmp    ffffffff80201fa7 <convert+0x73>
ffffffff80201fa2:	83 c2 30             	add    $0x30,%edx
ffffffff80201fa5:	88 11                	mov    %dl,(%rcx)
ffffffff80201fa7:	48 89 f8             	mov    %rdi,%rax
ffffffff80201faa:	ba 00 00 00 00       	mov    $0x0,%edx
ffffffff80201faf:	48 f7 f6             	div    %rsi
ffffffff80201fb2:	48 89 c7             	mov    %rax,%rdi
ffffffff80201fb5:	45 8d 68 01          	lea    0x1(%r8),%r13d
ffffffff80201fb9:	48 ff c1             	inc    %rcx
ffffffff80201fbc:	48 85 c0             	test   %rax,%rax
ffffffff80201fbf:	75 93                	jne    ffffffff80201f54 <convert+0x20>
ffffffff80201fc1:	40 80 fd 70          	cmp    $0x70,%bpl
ffffffff80201fc5:	75 22                	jne    ffffffff80201fe9 <convert+0xb5>
ffffffff80201fc7:	4d 63 ed             	movslq %r13d,%r13
ffffffff80201fca:	42 c6 44 2c 0c 78    	movb   $0x78,0xc(%rsp,%r13,1)
ffffffff80201fd0:	41 8d 40 02          	lea    0x2(%r8),%eax
ffffffff80201fd4:	48 98                	cltq   
ffffffff80201fd6:	c6 44 04 0c 30       	movb   $0x30,0xc(%rsp,%rax,1)
ffffffff80201fdb:	45 8d 68 03          	lea    0x3(%r8),%r13d
ffffffff80201fdf:	45 85 ed             	test   %r13d,%r13d
ffffffff80201fe2:	7f 0a                	jg     ffffffff80201fee <convert+0xba>
ffffffff80201fe4:	e9 9d 00 00 00       	jmpq   ffffffff80202086 <convert+0x152>
ffffffff80201fe9:	45 85 ed             	test   %r13d,%r13d
ffffffff80201fec:	7e 66                	jle    ffffffff80202054 <convert+0x120>
ffffffff80201fee:	45 89 ec             	mov    %r13d,%r12d
ffffffff80201ff1:	41 be 00 00 00 00    	mov    $0x0,%r14d
ffffffff80201ff7:	41 ff cc             	dec    %r12d
ffffffff80201ffa:	80 fb 63             	cmp    $0x63,%bl
ffffffff80201ffd:	75 0f                	jne    ffffffff8020200e <convert+0xda>
ffffffff80201fff:	49 63 c4             	movslq %r12d,%rax
ffffffff80202002:	0f be 7c 04 0c       	movsbl 0xc(%rsp,%rax,1),%edi
ffffffff80202007:	e8 ab fe ff ff       	callq  ffffffff80201eb7 <write>
ffffffff8020200c:	eb 2d                	jmp    ffffffff8020203b <convert+0x107>
ffffffff8020200e:	80 fb 64             	cmp    $0x64,%bl
ffffffff80202011:	75 15                	jne    ffffffff80202028 <convert+0xf4>
ffffffff80202013:	49 63 c4             	movslq %r12d,%rax
ffffffff80202016:	0f b6 44 04 0c       	movzbl 0xc(%rsp,%rax,1),%eax
ffffffff8020201b:	48 8d 35 fe 72 01 00 	lea    0x172fe(%rip),%rsi        # ffffffff80219320 <d>
ffffffff80202022:	41 88 04 36          	mov    %al,(%r14,%rsi,1)
ffffffff80202026:	eb 13                	jmp    ffffffff8020203b <convert+0x107>
ffffffff80202028:	49 63 c4             	movslq %r12d,%rax
ffffffff8020202b:	0f b6 44 04 0c       	movzbl 0xc(%rsp,%rax,1),%eax
ffffffff80202030:	48 8d 0d e9 6e 01 00 	lea    0x16ee9(%rip),%rcx        # ffffffff80218f20 <x>
ffffffff80202037:	41 88 04 0e          	mov    %al,(%r14,%rcx,1)
ffffffff8020203b:	49 ff c6             	inc    %r14
ffffffff8020203e:	45 85 e4             	test   %r12d,%r12d
ffffffff80202041:	7f b4                	jg     ffffffff80201ff7 <convert+0xc3>
ffffffff80202043:	41 ff cd             	dec    %r13d
ffffffff80202046:	b8 00 00 00 00       	mov    $0x0,%eax
ffffffff8020204b:	44 0f 48 e8          	cmovs  %eax,%r13d
ffffffff8020204f:	41 ff c5             	inc    %r13d
ffffffff80202052:	eb 06                	jmp    ffffffff8020205a <convert+0x126>
ffffffff80202054:	41 bd 00 00 00 00    	mov    $0x0,%r13d
ffffffff8020205a:	40 80 fd 78          	cmp    $0x78,%bpl
ffffffff8020205e:	75 11                	jne    ffffffff80202071 <convert+0x13d>
ffffffff80202060:	4d 63 ed             	movslq %r13d,%r13
ffffffff80202063:	48 8d 05 b6 6e 01 00 	lea    0x16eb6(%rip),%rax        # ffffffff80218f20 <x>
ffffffff8020206a:	42 c6 04 28 00       	movb   $0x0,(%rax,%r13,1)
ffffffff8020206f:	eb 15                	jmp    ffffffff80202086 <convert+0x152>
ffffffff80202071:	40 80 fd 64          	cmp    $0x64,%bpl
ffffffff80202075:	75 0f                	jne    ffffffff80202086 <convert+0x152>
ffffffff80202077:	4d 63 ed             	movslq %r13d,%r13
ffffffff8020207a:	48 8d 05 9f 72 01 00 	lea    0x1729f(%rip),%rax        # ffffffff80219320 <d>
ffffffff80202081:	42 c6 04 28 00       	movb   $0x0,(%rax,%r13,1)
ffffffff80202086:	48 83 c4 20          	add    $0x20,%rsp
ffffffff8020208a:	5b                   	pop    %rbx
ffffffff8020208b:	5d                   	pop    %rbp
ffffffff8020208c:	41 5c                	pop    %r12
ffffffff8020208e:	41 5d                	pop    %r13
ffffffff80202090:	41 5e                	pop    %r14
ffffffff80202092:	c3                   	retq   

ffffffff80202093 <printx>:
ffffffff80202093:	53                   	push   %rbx
ffffffff80202094:	48 63 ff             	movslq %edi,%rdi
ffffffff80202097:	ba 78 00 00 00       	mov    $0x78,%edx
ffffffff8020209c:	be 10 00 00 00       	mov    $0x10,%esi
ffffffff802020a1:	e8 8e fe ff ff       	callq  ffffffff80201f34 <convert>
ffffffff802020a6:	48 8d 05 73 6e 01 00 	lea    0x16e73(%rip),%rax        # ffffffff80218f20 <x>
ffffffff802020ad:	0f b6 38             	movzbl (%rax),%edi
ffffffff802020b0:	40 84 ff             	test   %dil,%dil
ffffffff802020b3:	74 19                	je     ffffffff802020ce <printx+0x3b>
ffffffff802020b5:	48 8d 58 01          	lea    0x1(%rax),%rbx
ffffffff802020b9:	40 0f be ff          	movsbl %dil,%edi
ffffffff802020bd:	e8 f5 fd ff ff       	callq  ffffffff80201eb7 <write>
ffffffff802020c2:	48 ff c3             	inc    %rbx
ffffffff802020c5:	0f b6 7b ff          	movzbl -0x1(%rbx),%edi
ffffffff802020c9:	40 84 ff             	test   %dil,%dil
ffffffff802020cc:	75 eb                	jne    ffffffff802020b9 <printx+0x26>
ffffffff802020ce:	5b                   	pop    %rbx
ffffffff802020cf:	c3                   	retq   

ffffffff802020d0 <printd>:
ffffffff802020d0:	53                   	push   %rbx
ffffffff802020d1:	48 63 ff             	movslq %edi,%rdi
ffffffff802020d4:	ba 64 00 00 00       	mov    $0x64,%edx
ffffffff802020d9:	be 0a 00 00 00       	mov    $0xa,%esi
ffffffff802020de:	e8 51 fe ff ff       	callq  ffffffff80201f34 <convert>
ffffffff802020e3:	48 8d 05 36 72 01 00 	lea    0x17236(%rip),%rax        # ffffffff80219320 <d>
ffffffff802020ea:	0f b6 38             	movzbl (%rax),%edi
ffffffff802020ed:	40 84 ff             	test   %dil,%dil
ffffffff802020f0:	74 19                	je     ffffffff8020210b <printd+0x3b>
ffffffff802020f2:	48 8d 58 01          	lea    0x1(%rax),%rbx
ffffffff802020f6:	40 0f be ff          	movsbl %dil,%edi
ffffffff802020fa:	e8 b8 fd ff ff       	callq  ffffffff80201eb7 <write>
ffffffff802020ff:	48 ff c3             	inc    %rbx
ffffffff80202102:	0f b6 7b ff          	movzbl -0x1(%rbx),%edi
ffffffff80202106:	40 84 ff             	test   %dil,%dil
ffffffff80202109:	75 eb                	jne    ffffffff802020f6 <printd+0x26>
ffffffff8020210b:	5b                   	pop    %rbx
ffffffff8020210c:	c3                   	retq   

ffffffff8020210d <prints>:
ffffffff8020210d:	48 85 ff             	test   %rdi,%rdi
ffffffff80202110:	74 31                	je     ffffffff80202143 <prints+0x36>
ffffffff80202112:	0f b6 07             	movzbl (%rdi),%eax
ffffffff80202115:	84 c0                	test   %al,%al
ffffffff80202117:	74 2a                	je     ffffffff80202143 <prints+0x36>
ffffffff80202119:	55                   	push   %rbp
ffffffff8020211a:	53                   	push   %rbx
ffffffff8020211b:	48 83 ec 08          	sub    $0x8,%rsp
ffffffff8020211f:	48 89 fd             	mov    %rdi,%rbp
ffffffff80202122:	bb 00 00 00 00       	mov    $0x0,%ebx
ffffffff80202127:	0f be f8             	movsbl %al,%edi
ffffffff8020212a:	e8 88 fd ff ff       	callq  ffffffff80201eb7 <write>
ffffffff8020212f:	ff c3                	inc    %ebx
ffffffff80202131:	48 63 c3             	movslq %ebx,%rax
ffffffff80202134:	0f b6 44 05 00       	movzbl 0x0(%rbp,%rax,1),%eax
ffffffff80202139:	84 c0                	test   %al,%al
ffffffff8020213b:	75 ea                	jne    ffffffff80202127 <prints+0x1a>
ffffffff8020213d:	48 83 c4 08          	add    $0x8,%rsp
ffffffff80202141:	5b                   	pop    %rbx
ffffffff80202142:	5d                   	pop    %rbp
ffffffff80202143:	f3 c3                	repz retq 

ffffffff80202145 <printp>:
ffffffff80202145:	53                   	push   %rbx
ffffffff80202146:	48 89 fb             	mov    %rdi,%rbx
ffffffff80202149:	48 8d 3d ce 1e 00 00 	lea    0x1ece(%rip),%rdi        # ffffffff8020401e <_x86_64_asm_ltr+0x86>
ffffffff80202150:	e8 b8 ff ff ff       	callq  ffffffff8020210d <prints>
ffffffff80202155:	ba 78 00 00 00       	mov    $0x78,%edx
ffffffff8020215a:	be 10 00 00 00       	mov    $0x10,%esi
ffffffff8020215f:	48 89 df             	mov    %rbx,%rdi
ffffffff80202162:	e8 cd fd ff ff       	callq  ffffffff80201f34 <convert>
ffffffff80202167:	48 8d 05 b2 6d 01 00 	lea    0x16db2(%rip),%rax        # ffffffff80218f20 <x>
ffffffff8020216e:	0f b6 38             	movzbl (%rax),%edi
ffffffff80202171:	40 84 ff             	test   %dil,%dil
ffffffff80202174:	74 19                	je     ffffffff8020218f <printp+0x4a>
ffffffff80202176:	48 8d 58 01          	lea    0x1(%rax),%rbx
ffffffff8020217a:	40 0f be ff          	movsbl %dil,%edi
ffffffff8020217e:	e8 34 fd ff ff       	callq  ffffffff80201eb7 <write>
ffffffff80202183:	48 ff c3             	inc    %rbx
ffffffff80202186:	0f b6 7b ff          	movzbl -0x1(%rbx),%edi
ffffffff8020218a:	40 84 ff             	test   %dil,%dil
ffffffff8020218d:	75 eb                	jne    ffffffff8020217a <printp+0x35>
ffffffff8020218f:	5b                   	pop    %rbx
ffffffff80202190:	c3                   	retq   

ffffffff80202191 <printc>:
ffffffff80202191:	48 83 ec 08          	sub    $0x8,%rsp
ffffffff80202195:	40 0f be ff          	movsbl %dil,%edi
ffffffff80202199:	e8 19 fd ff ff       	callq  ffffffff80201eb7 <write>
ffffffff8020219e:	48 83 c4 08          	add    $0x8,%rsp
ffffffff802021a2:	c3                   	retq   

ffffffff802021a3 <newline>:
ffffffff802021a3:	48 8d 0d f6 87 01 00 	lea    0x187f6(%rip),%rcx        # ffffffff8021a9a0 <video>
ffffffff802021aa:	48 8d 15 6f 50 00 00 	lea    0x506f(%rip),%rdx        # ffffffff80207220 <xp>
ffffffff802021b1:	b8 50 00 00 00       	mov    $0x50,%eax
ffffffff802021b6:	2b 02                	sub    (%rdx),%eax
ffffffff802021b8:	01 c0                	add    %eax,%eax
ffffffff802021ba:	48 98                	cltq   
ffffffff802021bc:	48 01 01             	add    %rax,(%rcx)
ffffffff802021bf:	c7 02 00 00 00 00    	movl   $0x0,(%rdx)
ffffffff802021c5:	48 8d 05 e0 87 01 00 	lea    0x187e0(%rip),%rax        # ffffffff8021a9ac <yp>
ffffffff802021cc:	8b 00                	mov    (%rax),%eax
ffffffff802021ce:	83 f8 15             	cmp    $0x15,%eax
ffffffff802021d1:	7f 0c                	jg     ffffffff802021df <newline+0x3c>
ffffffff802021d3:	ff c0                	inc    %eax
ffffffff802021d5:	48 8d 15 d0 87 01 00 	lea    0x187d0(%rip),%rdx        # ffffffff8021a9ac <yp>
ffffffff802021dc:	89 02                	mov    %eax,(%rdx)
ffffffff802021de:	c3                   	retq   
ffffffff802021df:	48 83 ec 08          	sub    $0x8,%rsp
ffffffff802021e3:	b8 00 00 00 00       	mov    $0x0,%eax
ffffffff802021e8:	e8 74 fc ff ff       	callq  ffffffff80201e61 <scroll>
ffffffff802021ed:	48 83 c4 08          	add    $0x8,%rsp
ffffffff802021f1:	c3                   	retq   

ffffffff802021f2 <car_return>:
ffffffff802021f2:	48 8d 0d a7 87 01 00 	lea    0x187a7(%rip),%rcx        # ffffffff8021a9a0 <video>
ffffffff802021f9:	48 8d 15 20 50 00 00 	lea    0x5020(%rip),%rdx        # ffffffff80207220 <xp>
ffffffff80202200:	8b 02                	mov    (%rdx),%eax
ffffffff80202202:	01 c0                	add    %eax,%eax
ffffffff80202204:	48 98                	cltq   
ffffffff80202206:	48 29 01             	sub    %rax,(%rcx)
ffffffff80202209:	c7 02 00 00 00 00    	movl   $0x0,(%rdx)
ffffffff8020220f:	c3                   	retq   

ffffffff80202210 <kprintf>:
ffffffff80202210:	55                   	push   %rbp
ffffffff80202211:	53                   	push   %rbx
ffffffff80202212:	48 83 ec 38          	sub    $0x38,%rsp
ffffffff80202216:	48 89 74 24 08       	mov    %rsi,0x8(%rsp)
ffffffff8020221b:	48 89 54 24 10       	mov    %rdx,0x10(%rsp)
ffffffff80202220:	48 89 4c 24 18       	mov    %rcx,0x18(%rsp)
ffffffff80202225:	4c 89 44 24 20       	mov    %r8,0x20(%rsp)
ffffffff8020222a:	4c 89 4c 24 28       	mov    %r9,0x28(%rsp)
ffffffff8020222f:	48 8d 05 ca 68 01 00 	lea    0x168ca(%rip),%rax        # ffffffff80218b00 <args>
ffffffff80202236:	c7 00 08 00 00 00    	movl   $0x8,(%rax)
ffffffff8020223c:	48 8d 74 24 50       	lea    0x50(%rsp),%rsi
ffffffff80202241:	48 89 70 08          	mov    %rsi,0x8(%rax)
ffffffff80202245:	48 89 60 10          	mov    %rsp,0x10(%rax)
ffffffff80202249:	0f b6 07             	movzbl (%rdi),%eax
ffffffff8020224c:	84 c0                	test   %al,%al
ffffffff8020224e:	0f 84 aa 01 00 00    	je     ffffffff802023fe <kprintf+0x1ee>
ffffffff80202254:	48 89 fd             	mov    %rdi,%rbp
ffffffff80202257:	bb 00 00 00 00       	mov    $0x0,%ebx
ffffffff8020225c:	3c 25                	cmp    $0x25,%al
ffffffff8020225e:	0f 85 60 01 00 00    	jne    ffffffff802023c4 <kprintf+0x1b4>
ffffffff80202264:	ff c3                	inc    %ebx
ffffffff80202266:	48 63 c3             	movslq %ebx,%rax
ffffffff80202269:	0f b6 44 05 00       	movzbl 0x0(%rbp,%rax,1),%eax
ffffffff8020226e:	3c 78                	cmp    $0x78,%al
ffffffff80202270:	75 41                	jne    ffffffff802022b3 <kprintf+0xa3>
ffffffff80202272:	48 8d 05 87 68 01 00 	lea    0x16887(%rip),%rax        # ffffffff80218b00 <args>
ffffffff80202279:	8b 00                	mov    (%rax),%eax
ffffffff8020227b:	83 f8 2f             	cmp    $0x2f,%eax
ffffffff8020227e:	77 14                	ja     ffffffff80202294 <kprintf+0x84>
ffffffff80202280:	48 8d 0d 79 68 01 00 	lea    0x16879(%rip),%rcx        # ffffffff80218b00 <args>
ffffffff80202287:	89 c2                	mov    %eax,%edx
ffffffff80202289:	48 03 51 10          	add    0x10(%rcx),%rdx
ffffffff8020228d:	83 c0 08             	add    $0x8,%eax
ffffffff80202290:	89 01                	mov    %eax,(%rcx)
ffffffff80202292:	eb 13                	jmp    ffffffff802022a7 <kprintf+0x97>
ffffffff80202294:	48 8d 05 65 68 01 00 	lea    0x16865(%rip),%rax        # ffffffff80218b00 <args>
ffffffff8020229b:	48 8b 50 08          	mov    0x8(%rax),%rdx
ffffffff8020229f:	48 8d 4a 08          	lea    0x8(%rdx),%rcx
ffffffff802022a3:	48 89 48 08          	mov    %rcx,0x8(%rax)
ffffffff802022a7:	8b 3a                	mov    (%rdx),%edi
ffffffff802022a9:	e8 e5 fd ff ff       	callq  ffffffff80202093 <printx>
ffffffff802022ae:	e9 39 01 00 00       	jmpq   ffffffff802023ec <kprintf+0x1dc>
ffffffff802022b3:	3c 73                	cmp    $0x73,%al
ffffffff802022b5:	75 42                	jne    ffffffff802022f9 <kprintf+0xe9>
ffffffff802022b7:	48 8d 05 42 68 01 00 	lea    0x16842(%rip),%rax        # ffffffff80218b00 <args>
ffffffff802022be:	8b 00                	mov    (%rax),%eax
ffffffff802022c0:	83 f8 2f             	cmp    $0x2f,%eax
ffffffff802022c3:	77 14                	ja     ffffffff802022d9 <kprintf+0xc9>
ffffffff802022c5:	48 8d 0d 34 68 01 00 	lea    0x16834(%rip),%rcx        # ffffffff80218b00 <args>
ffffffff802022cc:	89 c2                	mov    %eax,%edx
ffffffff802022ce:	48 03 51 10          	add    0x10(%rcx),%rdx
ffffffff802022d2:	83 c0 08             	add    $0x8,%eax
ffffffff802022d5:	89 01                	mov    %eax,(%rcx)
ffffffff802022d7:	eb 13                	jmp    ffffffff802022ec <kprintf+0xdc>
ffffffff802022d9:	48 8d 05 20 68 01 00 	lea    0x16820(%rip),%rax        # ffffffff80218b00 <args>
ffffffff802022e0:	48 8b 50 08          	mov    0x8(%rax),%rdx
ffffffff802022e4:	48 8d 4a 08          	lea    0x8(%rdx),%rcx
ffffffff802022e8:	48 89 48 08          	mov    %rcx,0x8(%rax)
ffffffff802022ec:	48 8b 3a             	mov    (%rdx),%rdi
ffffffff802022ef:	e8 19 fe ff ff       	callq  ffffffff8020210d <prints>
ffffffff802022f4:	e9 f3 00 00 00       	jmpq   ffffffff802023ec <kprintf+0x1dc>
ffffffff802022f9:	3c 63                	cmp    $0x63,%al
ffffffff802022fb:	75 42                	jne    ffffffff8020233f <kprintf+0x12f>
ffffffff802022fd:	48 8d 05 fc 67 01 00 	lea    0x167fc(%rip),%rax        # ffffffff80218b00 <args>
ffffffff80202304:	8b 00                	mov    (%rax),%eax
ffffffff80202306:	83 f8 2f             	cmp    $0x2f,%eax
ffffffff80202309:	77 14                	ja     ffffffff8020231f <kprintf+0x10f>
ffffffff8020230b:	48 8d 0d ee 67 01 00 	lea    0x167ee(%rip),%rcx        # ffffffff80218b00 <args>
ffffffff80202312:	89 c2                	mov    %eax,%edx
ffffffff80202314:	48 03 51 10          	add    0x10(%rcx),%rdx
ffffffff80202318:	83 c0 08             	add    $0x8,%eax
ffffffff8020231b:	89 01                	mov    %eax,(%rcx)
ffffffff8020231d:	eb 13                	jmp    ffffffff80202332 <kprintf+0x122>
ffffffff8020231f:	48 8d 05 da 67 01 00 	lea    0x167da(%rip),%rax        # ffffffff80218b00 <args>
ffffffff80202326:	48 8b 50 08          	mov    0x8(%rax),%rdx
ffffffff8020232a:	48 8d 4a 08          	lea    0x8(%rdx),%rcx
ffffffff8020232e:	48 89 48 08          	mov    %rcx,0x8(%rax)
ffffffff80202332:	0f be 3a             	movsbl (%rdx),%edi
ffffffff80202335:	e8 57 fe ff ff       	callq  ffffffff80202191 <printc>
ffffffff8020233a:	e9 ad 00 00 00       	jmpq   ffffffff802023ec <kprintf+0x1dc>
ffffffff8020233f:	3c 70                	cmp    $0x70,%al
ffffffff80202341:	75 3f                	jne    ffffffff80202382 <kprintf+0x172>
ffffffff80202343:	48 8d 05 b6 67 01 00 	lea    0x167b6(%rip),%rax        # ffffffff80218b00 <args>
ffffffff8020234a:	8b 00                	mov    (%rax),%eax
ffffffff8020234c:	83 f8 2f             	cmp    $0x2f,%eax
ffffffff8020234f:	77 14                	ja     ffffffff80202365 <kprintf+0x155>
ffffffff80202351:	48 8d 0d a8 67 01 00 	lea    0x167a8(%rip),%rcx        # ffffffff80218b00 <args>
ffffffff80202358:	89 c2                	mov    %eax,%edx
ffffffff8020235a:	48 03 51 10          	add    0x10(%rcx),%rdx
ffffffff8020235e:	83 c0 08             	add    $0x8,%eax
ffffffff80202361:	89 01                	mov    %eax,(%rcx)
ffffffff80202363:	eb 13                	jmp    ffffffff80202378 <kprintf+0x168>
ffffffff80202365:	48 8d 05 94 67 01 00 	lea    0x16794(%rip),%rax        # ffffffff80218b00 <args>
ffffffff8020236c:	48 8b 50 08          	mov    0x8(%rax),%rdx
ffffffff80202370:	48 8d 4a 08          	lea    0x8(%rdx),%rcx
ffffffff80202374:	48 89 48 08          	mov    %rcx,0x8(%rax)
ffffffff80202378:	48 8b 3a             	mov    (%rdx),%rdi
ffffffff8020237b:	e8 c5 fd ff ff       	callq  ffffffff80202145 <printp>
ffffffff80202380:	eb 6a                	jmp    ffffffff802023ec <kprintf+0x1dc>
ffffffff80202382:	3c 64                	cmp    $0x64,%al
ffffffff80202384:	75 66                	jne    ffffffff802023ec <kprintf+0x1dc>
ffffffff80202386:	48 8d 05 73 67 01 00 	lea    0x16773(%rip),%rax        # ffffffff80218b00 <args>
ffffffff8020238d:	8b 00                	mov    (%rax),%eax
ffffffff8020238f:	83 f8 2f             	cmp    $0x2f,%eax
ffffffff80202392:	77 14                	ja     ffffffff802023a8 <kprintf+0x198>
ffffffff80202394:	48 8d 0d 65 67 01 00 	lea    0x16765(%rip),%rcx        # ffffffff80218b00 <args>
ffffffff8020239b:	89 c2                	mov    %eax,%edx
ffffffff8020239d:	48 03 51 10          	add    0x10(%rcx),%rdx
ffffffff802023a1:	83 c0 08             	add    $0x8,%eax
ffffffff802023a4:	89 01                	mov    %eax,(%rcx)
ffffffff802023a6:	eb 13                	jmp    ffffffff802023bb <kprintf+0x1ab>
ffffffff802023a8:	48 8d 05 51 67 01 00 	lea    0x16751(%rip),%rax        # ffffffff80218b00 <args>
ffffffff802023af:	48 8b 50 08          	mov    0x8(%rax),%rdx
ffffffff802023b3:	48 8d 4a 08          	lea    0x8(%rdx),%rcx
ffffffff802023b7:	48 89 48 08          	mov    %rcx,0x8(%rax)
ffffffff802023bb:	8b 3a                	mov    (%rdx),%edi
ffffffff802023bd:	e8 0e fd ff ff       	callq  ffffffff802020d0 <printd>
ffffffff802023c2:	eb 28                	jmp    ffffffff802023ec <kprintf+0x1dc>
ffffffff802023c4:	3c 0a                	cmp    $0xa,%al
ffffffff802023c6:	75 0c                	jne    ffffffff802023d4 <kprintf+0x1c4>
ffffffff802023c8:	b8 00 00 00 00       	mov    $0x0,%eax
ffffffff802023cd:	e8 d1 fd ff ff       	callq  ffffffff802021a3 <newline>
ffffffff802023d2:	eb 18                	jmp    ffffffff802023ec <kprintf+0x1dc>
ffffffff802023d4:	3c 0d                	cmp    $0xd,%al
ffffffff802023d6:	75 0c                	jne    ffffffff802023e4 <kprintf+0x1d4>
ffffffff802023d8:	b8 00 00 00 00       	mov    $0x0,%eax
ffffffff802023dd:	e8 10 fe ff ff       	callq  ffffffff802021f2 <car_return>
ffffffff802023e2:	eb 08                	jmp    ffffffff802023ec <kprintf+0x1dc>
ffffffff802023e4:	0f be f8             	movsbl %al,%edi
ffffffff802023e7:	e8 a5 fd ff ff       	callq  ffffffff80202191 <printc>
ffffffff802023ec:	ff c3                	inc    %ebx
ffffffff802023ee:	48 63 c3             	movslq %ebx,%rax
ffffffff802023f1:	0f b6 44 05 00       	movzbl 0x0(%rbp,%rax,1),%eax
ffffffff802023f6:	84 c0                	test   %al,%al
ffffffff802023f8:	0f 85 5e fe ff ff    	jne    ffffffff8020225c <kprintf+0x4c>
ffffffff802023fe:	48 83 c4 38          	add    $0x38,%rsp
ffffffff80202402:	5b                   	pop    %rbx
ffffffff80202403:	5d                   	pop    %rbp
ffffffff80202404:	c3                   	retq   

ffffffff80202405 <idt_gate>:
ffffffff80202405:	40 0f b6 ff          	movzbl %dil,%edi
ffffffff80202409:	48 c1 e7 04          	shl    $0x4,%rdi
ffffffff8020240d:	48 81 c7 00 73 21 80 	add    $0xffffffff80217300,%rdi
ffffffff80202414:	66 89 37             	mov    %si,(%rdi)
ffffffff80202417:	48 89 f0             	mov    %rsi,%rax
ffffffff8020241a:	48 c1 e8 10          	shr    $0x10,%rax
ffffffff8020241e:	66 89 47 06          	mov    %ax,0x6(%rdi)
ffffffff80202422:	48 c1 ee 20          	shr    $0x20,%rsi
ffffffff80202426:	89 77 08             	mov    %esi,0x8(%rdi)
ffffffff80202429:	66 89 57 02          	mov    %dx,0x2(%rdi)
ffffffff8020242d:	c6 47 04 00          	movb   $0x0,0x4(%rdi)
ffffffff80202431:	88 4f 05             	mov    %cl,0x5(%rdi)
ffffffff80202434:	c7 47 0c 00 00 00 00 	movl   $0x0,0xc(%rdi)
ffffffff8020243b:	c3                   	retq   

ffffffff8020243c <init_idt>:
ffffffff8020243c:	48 83 ec 08          	sub    $0x8,%rsp
ffffffff80202440:	48 8d 05 99 4e 01 00 	lea    0x14e99(%rip),%rax        # ffffffff802172e0 <idt_ptr>
ffffffff80202447:	66 c7 00 ff 0f       	movw   $0xfff,(%rax)
ffffffff8020244c:	48 8d 15 ad 4e 01 00 	lea    0x14ead(%rip),%rdx        # ffffffff80217300 <idt_entry>
ffffffff80202453:	48 89 50 02          	mov    %rdx,0x2(%rax)
ffffffff80202457:	0f 01 18             	lidt   (%rax)
ffffffff8020245a:	b9 8e 00 00 00       	mov    $0x8e,%ecx
ffffffff8020245f:	ba 08 00 00 00       	mov    $0x8,%edx
ffffffff80202464:	48 8d 35 5e 1a 00 00 	lea    0x1a5e(%rip),%rsi        # ffffffff80203ec9 <isr14>
ffffffff8020246b:	bf 0e 00 00 00       	mov    $0xe,%edi
ffffffff80202470:	e8 90 ff ff ff       	callq  ffffffff80202405 <idt_gate>
ffffffff80202475:	b9 8e 00 00 00       	mov    $0x8e,%ecx
ffffffff8020247a:	ba 08 00 00 00       	mov    $0x8,%edx
ffffffff8020247f:	48 8d 35 50 1a 00 00 	lea    0x1a50(%rip),%rsi        # ffffffff80203ed6 <timer_routine>
ffffffff80202486:	bf 20 00 00 00       	mov    $0x20,%edi
ffffffff8020248b:	e8 75 ff ff ff       	callq  ffffffff80202405 <idt_gate>
ffffffff80202490:	b9 8e 00 00 00       	mov    $0x8e,%ecx
ffffffff80202495:	ba 08 00 00 00       	mov    $0x8,%edx
ffffffff8020249a:	48 8d 35 37 1a 00 00 	lea    0x1a37(%rip),%rsi        # ffffffff80203ed8 <keyboard_routine>
ffffffff802024a1:	bf 21 00 00 00       	mov    $0x21,%edi
ffffffff802024a6:	e8 5a ff ff ff       	callq  ffffffff80202405 <idt_gate>
ffffffff802024ab:	b9 ee 00 00 00       	mov    $0xee,%ecx
ffffffff802024b0:	ba 08 00 00 00       	mov    $0x8,%edx
ffffffff802024b5:	48 8d 35 11 1a 00 00 	lea    0x1a11(%rip),%rsi        # ffffffff80203ecd <syscall_routine>
ffffffff802024bc:	bf 80 00 00 00       	mov    $0x80,%edi
ffffffff802024c1:	e8 3f ff ff ff       	callq  ffffffff80202405 <idt_gate>
ffffffff802024c6:	48 83 c4 08          	add    $0x8,%rsp
ffffffff802024ca:	c3                   	retq   
ffffffff802024cb:	0f 1f 44 00 00       	nopl   0x0(%rax,%rax,1)

ffffffff802024d0 <memset>:
ffffffff802024d0:	85 d2                	test   %edx,%edx
ffffffff802024d2:	7e 16                	jle    ffffffff802024ea <memset+0x1a>
ffffffff802024d4:	48 89 f8             	mov    %rdi,%rax
ffffffff802024d7:	8d 52 ff             	lea    -0x1(%rdx),%edx
ffffffff802024da:	48 8d 54 17 01       	lea    0x1(%rdi,%rdx,1),%rdx
ffffffff802024df:	40 88 30             	mov    %sil,(%rax)
ffffffff802024e2:	48 ff c0             	inc    %rax
ffffffff802024e5:	48 39 d0             	cmp    %rdx,%rax
ffffffff802024e8:	75 f5                	jne    ffffffff802024df <memset+0xf>
ffffffff802024ea:	f3 c3                	repz retq 

ffffffff802024ec <strlen>:
ffffffff802024ec:	80 3f 00             	cmpb   $0x0,(%rdi)
ffffffff802024ef:	74 12                	je     ffffffff80202503 <strlen+0x17>
ffffffff802024f1:	b8 00 00 00 00       	mov    $0x0,%eax
ffffffff802024f6:	ff c0                	inc    %eax
ffffffff802024f8:	48 63 d0             	movslq %eax,%rdx
ffffffff802024fb:	80 3c 17 00          	cmpb   $0x0,(%rdi,%rdx,1)
ffffffff802024ff:	75 f5                	jne    ffffffff802024f6 <strlen+0xa>
ffffffff80202501:	f3 c3                	repz retq 
ffffffff80202503:	b8 00 00 00 00       	mov    $0x0,%eax
ffffffff80202508:	c3                   	retq   

ffffffff80202509 <strcmp>:
ffffffff80202509:	41 55                	push   %r13
ffffffff8020250b:	41 54                	push   %r12
ffffffff8020250d:	55                   	push   %rbp
ffffffff8020250e:	53                   	push   %rbx
ffffffff8020250f:	48 83 ec 08          	sub    $0x8,%rsp
ffffffff80202513:	48 89 fd             	mov    %rdi,%rbp
ffffffff80202516:	49 89 f4             	mov    %rsi,%r12
ffffffff80202519:	89 d3                	mov    %edx,%ebx
ffffffff8020251b:	e8 cc ff ff ff       	callq  ffffffff802024ec <strlen>
ffffffff80202520:	41 89 c5             	mov    %eax,%r13d
ffffffff80202523:	4c 89 e7             	mov    %r12,%rdi
ffffffff80202526:	e8 c1 ff ff ff       	callq  ffffffff802024ec <strlen>
ffffffff8020252b:	41 39 c5             	cmp    %eax,%r13d
ffffffff8020252e:	75 35                	jne    ffffffff80202565 <strcmp+0x5c>
ffffffff80202530:	48 63 c3             	movslq %ebx,%rax
ffffffff80202533:	0f b6 54 05 00       	movzbl 0x0(%rbp,%rax,1),%edx
ffffffff80202538:	41 3a 14 04          	cmp    (%r12,%rax,1),%dl
ffffffff8020253c:	75 1a                	jne    ffffffff80202558 <strcmp+0x4f>
ffffffff8020253e:	84 d2                	test   %dl,%dl
ffffffff80202540:	75 06                	jne    ffffffff80202548 <strcmp+0x3f>
ffffffff80202542:	eb 14                	jmp    ffffffff80202558 <strcmp+0x4f>
ffffffff80202544:	84 d2                	test   %dl,%dl
ffffffff80202546:	74 10                	je     ffffffff80202558 <strcmp+0x4f>
ffffffff80202548:	ff c3                	inc    %ebx
ffffffff8020254a:	48 63 c3             	movslq %ebx,%rax
ffffffff8020254d:	0f b6 54 05 00       	movzbl 0x0(%rbp,%rax,1),%edx
ffffffff80202552:	41 3a 14 04          	cmp    (%r12,%rax,1),%dl
ffffffff80202556:	74 ec                	je     ffffffff80202544 <strcmp+0x3b>
ffffffff80202558:	41 39 dd             	cmp    %ebx,%r13d
ffffffff8020255b:	0f 95 c0             	setne  %al
ffffffff8020255e:	0f b6 c0             	movzbl %al,%eax
ffffffff80202561:	f7 d8                	neg    %eax
ffffffff80202563:	eb 05                	jmp    ffffffff8020256a <strcmp+0x61>
ffffffff80202565:	b8 ff ff ff ff       	mov    $0xffffffff,%eax
ffffffff8020256a:	48 83 c4 08          	add    $0x8,%rsp
ffffffff8020256e:	5b                   	pop    %rbx
ffffffff8020256f:	5d                   	pop    %rbp
ffffffff80202570:	41 5c                	pop    %r12
ffffffff80202572:	41 5d                	pop    %r13
ffffffff80202574:	c3                   	retq   

ffffffff80202575 <strcpy>:
ffffffff80202575:	0f b6 07             	movzbl (%rdi),%eax
ffffffff80202578:	84 c0                	test   %al,%al
ffffffff8020257a:	74 1c                	je     ffffffff80202598 <strcpy+0x23>
ffffffff8020257c:	ba 00 00 00 00       	mov    $0x0,%edx
ffffffff80202581:	b9 00 00 00 00       	mov    $0x0,%ecx
ffffffff80202586:	88 04 16             	mov    %al,(%rsi,%rdx,1)
ffffffff80202589:	ff c1                	inc    %ecx
ffffffff8020258b:	48 63 d1             	movslq %ecx,%rdx
ffffffff8020258e:	0f b6 04 17          	movzbl (%rdi,%rdx,1),%eax
ffffffff80202592:	84 c0                	test   %al,%al
ffffffff80202594:	75 f0                	jne    ffffffff80202586 <strcpy+0x11>
ffffffff80202596:	eb 05                	jmp    ffffffff8020259d <strcpy+0x28>
ffffffff80202598:	ba 00 00 00 00       	mov    $0x0,%edx
ffffffff8020259d:	c6 04 16 00          	movb   $0x0,(%rsi,%rdx,1)
ffffffff802025a1:	c3                   	retq   

ffffffff802025a2 <strstr>:
ffffffff802025a2:	41 54                	push   %r12
ffffffff802025a4:	55                   	push   %rbp
ffffffff802025a5:	53                   	push   %rbx
ffffffff802025a6:	48 89 fd             	mov    %rdi,%rbp
ffffffff802025a9:	48 89 f3             	mov    %rsi,%rbx
ffffffff802025ac:	e8 3b ff ff ff       	callq  ffffffff802024ec <strlen>
ffffffff802025b1:	41 89 c4             	mov    %eax,%r12d
ffffffff802025b4:	48 89 df             	mov    %rbx,%rdi
ffffffff802025b7:	e8 30 ff ff ff       	callq  ffffffff802024ec <strlen>
ffffffff802025bc:	ba 00 00 00 00       	mov    $0x0,%edx
ffffffff802025c1:	41 39 c4             	cmp    %eax,%r12d
ffffffff802025c4:	7c 47                	jl     ffffffff8020260d <strstr+0x6b>
ffffffff802025c6:	41 29 c4             	sub    %eax,%r12d
ffffffff802025c9:	bf 00 00 00 00       	mov    $0x0,%edi
ffffffff802025ce:	45 85 e4             	test   %r12d,%r12d
ffffffff802025d1:	7f 0f                	jg     ffffffff802025e2 <strstr+0x40>
ffffffff802025d3:	eb 38                	jmp    ffffffff8020260d <strstr+0x6b>
ffffffff802025d5:	ff c2                	inc    %edx
ffffffff802025d7:	48 63 ca             	movslq %edx,%rcx
ffffffff802025da:	80 3c 0b 00          	cmpb   $0x0,(%rbx,%rcx,1)
ffffffff802025de:	75 07                	jne    ffffffff802025e7 <strstr+0x45>
ffffffff802025e0:	eb 26                	jmp    ffffffff80202608 <strstr+0x66>
ffffffff802025e2:	ba 00 00 00 00       	mov    $0x0,%edx
ffffffff802025e7:	8d 0c 17             	lea    (%rdi,%rdx,1),%ecx
ffffffff802025ea:	48 63 c9             	movslq %ecx,%rcx
ffffffff802025ed:	48 63 f2             	movslq %edx,%rsi
ffffffff802025f0:	0f b6 04 33          	movzbl (%rbx,%rsi,1),%eax
ffffffff802025f4:	38 44 0d 00          	cmp    %al,0x0(%rbp,%rcx,1)
ffffffff802025f8:	74 db                	je     ffffffff802025d5 <strstr+0x33>
ffffffff802025fa:	ff c7                	inc    %edi
ffffffff802025fc:	44 39 e7             	cmp    %r12d,%edi
ffffffff802025ff:	75 e1                	jne    ffffffff802025e2 <strstr+0x40>
ffffffff80202601:	ba 00 00 00 00       	mov    $0x0,%edx
ffffffff80202606:	eb 05                	jmp    ffffffff8020260d <strstr+0x6b>
ffffffff80202608:	ba 01 00 00 00       	mov    $0x1,%edx
ffffffff8020260d:	89 d0                	mov    %edx,%eax
ffffffff8020260f:	5b                   	pop    %rbx
ffffffff80202610:	5d                   	pop    %rbp
ffffffff80202611:	41 5c                	pop    %r12
ffffffff80202613:	c3                   	retq   

ffffffff80202614 <memcpy>:
ffffffff80202614:	48 85 d2             	test   %rdx,%rdx
ffffffff80202617:	74 1c                	je     ffffffff80202635 <memcpy+0x21>
ffffffff80202619:	b8 00 00 00 00       	mov    $0x0,%eax
ffffffff8020261e:	48 ff c7             	inc    %rdi
ffffffff80202621:	48 ff c6             	inc    %rsi
ffffffff80202624:	0f b6 4e ff          	movzbl -0x1(%rsi),%ecx
ffffffff80202628:	88 4f ff             	mov    %cl,-0x1(%rdi)
ffffffff8020262b:	ff c0                	inc    %eax
ffffffff8020262d:	48 63 c8             	movslq %eax,%rcx
ffffffff80202630:	48 39 d1             	cmp    %rdx,%rcx
ffffffff80202633:	72 e9                	jb     ffffffff8020261e <memcpy+0xa>
ffffffff80202635:	f3 c3                	repz retq 

ffffffff80202637 <init_page>:
ffffffff80202637:	48 8d 05 d2 70 01 00 	lea    0x170d2(%rip),%rax        # ffffffff80219710 <pageMap>
ffffffff8020263e:	48 8b 10             	mov    (%rax),%rdx
ffffffff80202641:	48 85 ff             	test   %rdi,%rdi
ffffffff80202644:	74 12                	je     ffffffff80202658 <init_page+0x21>
ffffffff80202646:	b8 00 00 00 00       	mov    $0x0,%eax
ffffffff8020264b:	48 ff c0             	inc    %rax
ffffffff8020264e:	48 89 44 c2 f8       	mov    %rax,-0x8(%rdx,%rax,8)
ffffffff80202653:	48 39 c7             	cmp    %rax,%rdi
ffffffff80202656:	75 f3                	jne    ffffffff8020264b <init_page+0x14>
ffffffff80202658:	48 8d 05 b1 70 01 00 	lea    0x170b1(%rip),%rax        # ffffffff80219710 <pageMap>
ffffffff8020265f:	48 8b 00             	mov    (%rax),%rax
ffffffff80202662:	48 c7 04 f8 ff ff ff 	movq   $0xffffffffffffffff,(%rax,%rdi,8)
ffffffff80202669:	ff 
ffffffff8020266a:	c3                   	retq   

ffffffff8020266b <unsetPage>:
ffffffff8020266b:	48 8d 05 96 70 01 00 	lea    0x17096(%rip),%rax        # ffffffff80219708 <firstFreepage>
ffffffff80202672:	48 8b 10             	mov    (%rax),%rdx
ffffffff80202675:	48 8d 05 94 70 01 00 	lea    0x17094(%rip),%rax        # ffffffff80219710 <pageMap>
ffffffff8020267c:	48 8b 00             	mov    (%rax),%rax
ffffffff8020267f:	48 8d 0c d0          	lea    (%rax,%rdx,8),%rcx
ffffffff80202683:	48 8b 01             	mov    (%rcx),%rax
ffffffff80202686:	48 83 f8 ff          	cmp    $0xffffffffffffffff,%rax
ffffffff8020268a:	74 14                	je     ffffffff802026a0 <unsetPage+0x35>
ffffffff8020268c:	48 8d 35 75 70 01 00 	lea    0x17075(%rip),%rsi        # ffffffff80219708 <firstFreepage>
ffffffff80202693:	48 89 06             	mov    %rax,(%rsi)
ffffffff80202696:	48 c7 01 00 00 00 00 	movq   $0x0,(%rcx)
ffffffff8020269d:	48 89 d0             	mov    %rdx,%rax
ffffffff802026a0:	f3 c3                	repz retq 

ffffffff802026a2 <allocatePage>:
ffffffff802026a2:	48 83 ec 08          	sub    $0x8,%rsp
ffffffff802026a6:	b8 00 00 00 00       	mov    $0x0,%eax
ffffffff802026ab:	e8 bb ff ff ff       	callq  ffffffff8020266b <unsetPage>
ffffffff802026b0:	48 89 c2             	mov    %rax,%rdx
ffffffff802026b3:	48 c1 e2 0c          	shl    $0xc,%rdx
ffffffff802026b7:	48 83 f8 ff          	cmp    $0xffffffffffffffff,%rax
ffffffff802026bb:	b8 00 00 00 00       	mov    $0x0,%eax
ffffffff802026c0:	48 0f 45 c2          	cmovne %rdx,%rax
ffffffff802026c4:	48 83 c4 08          	add    $0x8,%rsp
ffffffff802026c8:	c3                   	retq   

ffffffff802026c9 <setPage>:
ffffffff802026c9:	48 8d 05 38 70 01 00 	lea    0x17038(%rip),%rax        # ffffffff80219708 <firstFreepage>
ffffffff802026d0:	48 8b 00             	mov    (%rax),%rax
ffffffff802026d3:	48 39 f8             	cmp    %rdi,%rax
ffffffff802026d6:	76 19                	jbe    ffffffff802026f1 <setPage+0x28>
ffffffff802026d8:	48 8d 15 31 70 01 00 	lea    0x17031(%rip),%rdx        # ffffffff80219710 <pageMap>
ffffffff802026df:	48 8b 12             	mov    (%rdx),%rdx
ffffffff802026e2:	48 89 04 fa          	mov    %rax,(%rdx,%rdi,8)
ffffffff802026e6:	48 8d 05 1b 70 01 00 	lea    0x1701b(%rip),%rax        # ffffffff80219708 <firstFreepage>
ffffffff802026ed:	48 89 38             	mov    %rdi,(%rax)
ffffffff802026f0:	c3                   	retq   
ffffffff802026f1:	48 39 f8             	cmp    %rdi,%rax
ffffffff802026f4:	73 40                	jae    ffffffff80202736 <setPage+0x6d>
ffffffff802026f6:	48 8d 15 13 70 01 00 	lea    0x17013(%rip),%rdx        # ffffffff80219710 <pageMap>
ffffffff802026fd:	48 8b 32             	mov    (%rdx),%rsi
ffffffff80202700:	48 c1 e0 03          	shl    $0x3,%rax
ffffffff80202704:	48 8d 0c 06          	lea    (%rsi,%rax,1),%rcx
ffffffff80202708:	48 8b 11             	mov    (%rcx),%rdx
ffffffff8020270b:	48 39 d7             	cmp    %rdx,%rdi
ffffffff8020270e:	76 15                	jbe    ffffffff80202725 <setPage+0x5c>
ffffffff80202710:	48 8d 44 06 08       	lea    0x8(%rsi,%rax,1),%rax
ffffffff80202715:	48 89 c1             	mov    %rax,%rcx
ffffffff80202718:	48 83 c0 08          	add    $0x8,%rax
ffffffff8020271c:	48 8b 50 f8          	mov    -0x8(%rax),%rdx
ffffffff80202720:	48 39 d7             	cmp    %rdx,%rdi
ffffffff80202723:	77 f0                	ja     ffffffff80202715 <setPage+0x4c>
ffffffff80202725:	48 89 39             	mov    %rdi,(%rcx)
ffffffff80202728:	48 8d 05 e1 6f 01 00 	lea    0x16fe1(%rip),%rax        # ffffffff80219710 <pageMap>
ffffffff8020272f:	48 8b 00             	mov    (%rax),%rax
ffffffff80202732:	48 89 14 f8          	mov    %rdx,(%rax,%rdi,8)
ffffffff80202736:	f3 c3                	repz retq 

ffffffff80202738 <deallocatePage>:
ffffffff80202738:	48 83 ec 08          	sub    $0x8,%rsp
ffffffff8020273c:	48 c1 ef 0c          	shr    $0xc,%rdi
ffffffff80202740:	e8 84 ff ff ff       	callq  ffffffff802026c9 <setPage>
ffffffff80202745:	48 83 c4 08          	add    $0x8,%rsp
ffffffff80202749:	c3                   	retq   

ffffffff8020274a <init_pageTable>:
ffffffff8020274a:	41 56                	push   %r14
ffffffff8020274c:	41 55                	push   %r13
ffffffff8020274e:	41 54                	push   %r12
ffffffff80202750:	55                   	push   %rbp
ffffffff80202751:	53                   	push   %rbx
ffffffff80202752:	49 89 fc             	mov    %rdi,%r12
ffffffff80202755:	49 89 f5             	mov    %rsi,%r13
ffffffff80202758:	48 89 d3             	mov    %rdx,%rbx
ffffffff8020275b:	48 c1 e9 0c          	shr    $0xc,%rcx
ffffffff8020275f:	48 89 cf             	mov    %rcx,%rdi
ffffffff80202762:	48 8d 05 af 6f 01 00 	lea    0x16faf(%rip),%rax        # ffffffff80219718 <lastPage>
ffffffff80202769:	48 89 08             	mov    %rcx,(%rax)
ffffffff8020276c:	48 8d 05 9d 6f 01 00 	lea    0x16f9d(%rip),%rax        # ffffffff80219710 <pageMap>
ffffffff80202773:	48 89 30             	mov    %rsi,(%rax)
ffffffff80202776:	e8 bc fe ff ff       	callq  ffffffff80202637 <init_page>
ffffffff8020277b:	49 81 c5 00 30 00 00 	add    $0x3000,%r13
ffffffff80202782:	48 8d 05 7f 6f 01 00 	lea    0x16f7f(%rip),%rax        # ffffffff80219708 <firstFreepage>
ffffffff80202789:	48 c7 00 00 00 00 00 	movq   $0x0,(%rax)
ffffffff80202790:	4d 89 ee             	mov    %r13,%r14
ffffffff80202793:	49 c1 ee 0c          	shr    $0xc,%r14
ffffffff80202797:	74 17                	je     ffffffff802027b0 <init_pageTable+0x66>
ffffffff80202799:	bd 00 00 00 00       	mov    $0x0,%ebp
ffffffff8020279e:	b8 00 00 00 00       	mov    $0x0,%eax
ffffffff802027a3:	e8 c3 fe ff ff       	callq  ffffffff8020266b <unsetPage>
ffffffff802027a8:	48 ff c5             	inc    %rbp
ffffffff802027ab:	4c 39 f5             	cmp    %r14,%rbp
ffffffff802027ae:	75 ee                	jne    ffffffff8020279e <init_pageTable+0x54>
ffffffff802027b0:	48 c1 eb 0c          	shr    $0xc,%rbx
ffffffff802027b4:	4c 89 e5             	mov    %r12,%rbp
ffffffff802027b7:	48 c1 ed 0c          	shr    $0xc,%rbp
ffffffff802027bb:	48 39 eb             	cmp    %rbp,%rbx
ffffffff802027be:	73 10                	jae    ffffffff802027d0 <init_pageTable+0x86>
ffffffff802027c0:	48 89 df             	mov    %rbx,%rdi
ffffffff802027c3:	e8 01 ff ff ff       	callq  ffffffff802026c9 <setPage>
ffffffff802027c8:	48 ff c3             	inc    %rbx
ffffffff802027cb:	48 39 eb             	cmp    %rbp,%rbx
ffffffff802027ce:	72 f0                	jb     ffffffff802027c0 <init_pageTable+0x76>
ffffffff802027d0:	4c 89 e8             	mov    %r13,%rax
ffffffff802027d3:	5b                   	pop    %rbx
ffffffff802027d4:	5d                   	pop    %rbp
ffffffff802027d5:	41 5c                	pop    %r12
ffffffff802027d7:	41 5d                	pop    %r13
ffffffff802027d9:	41 5e                	pop    %r14
ffffffff802027db:	c3                   	retq   

ffffffff802027dc <pageFault>:
ffffffff802027dc:	41 57                	push   %r15
ffffffff802027de:	41 56                	push   %r14
ffffffff802027e0:	41 55                	push   %r13
ffffffff802027e2:	41 54                	push   %r12
ffffffff802027e4:	55                   	push   %rbp
ffffffff802027e5:	53                   	push   %rbx
ffffffff802027e6:	48 83 ec 08          	sub    $0x8,%rsp
ffffffff802027ea:	48 89 fb             	mov    %rdi,%rbx
ffffffff802027ed:	48 8d 3d 2d 18 00 00 	lea    0x182d(%rip),%rdi        # ffffffff80204021 <_x86_64_asm_ltr+0x89>
ffffffff802027f4:	b8 00 00 00 00       	mov    $0x0,%eax
ffffffff802027f9:	e8 12 fa ff ff       	callq  ffffffff80202210 <kprintf>
ffffffff802027fe:	4c 8b 6b 50          	mov    0x50(%rbx),%r13
ffffffff80202802:	4d 89 ef             	mov    %r13,%r15
ffffffff80202805:	41 83 e7 0f          	and    $0xf,%r15d
ffffffff80202809:	41 0f 20 d6          	mov    %cr2,%r14
ffffffff8020280d:	4d 89 f4             	mov    %r14,%r12
ffffffff80202810:	4c 89 e8             	mov    %r13,%rax
ffffffff80202813:	83 e0 03             	and    $0x3,%eax
ffffffff80202816:	48 83 f8 03          	cmp    $0x3,%rax
ffffffff8020281a:	0f 85 9b 00 00 00    	jne    ffffffff802028bb <pageFault+0xdf>
ffffffff80202820:	4c 89 f7             	mov    %r14,%rdi
ffffffff80202823:	e8 0e ea ff ff       	callq  ffffffff80201236 <physicalAddress>
ffffffff80202828:	48 89 c3             	mov    %rax,%rbx
ffffffff8020282b:	4c 89 f2             	mov    %r14,%rdx
ffffffff8020282e:	4c 89 fe             	mov    %r15,%rsi
ffffffff80202831:	48 8d 3d 20 1a 00 00 	lea    0x1a20(%rip),%rdi        # ffffffff80204258 <_x86_64_asm_ltr+0x2c0>
ffffffff80202838:	b8 00 00 00 00       	mov    $0x0,%eax
ffffffff8020283d:	e8 ce f9 ff ff       	callq  ffffffff80202210 <kprintf>
ffffffff80202842:	f6 c7 01             	test   $0x1,%bh
ffffffff80202845:	0f 84 45 01 00 00    	je     ffffffff80202990 <pageFault+0x1b4>
ffffffff8020284b:	4c 89 f2             	mov    %r14,%rdx
ffffffff8020284e:	4c 89 fe             	mov    %r15,%rsi
ffffffff80202851:	48 8d 3d d7 17 00 00 	lea    0x17d7(%rip),%rdi        # ffffffff8020402f <_x86_64_asm_ltr+0x97>
ffffffff80202858:	b8 00 00 00 00       	mov    $0x0,%eax
ffffffff8020285d:	e8 ae f9 ff ff       	callq  ffffffff80202210 <kprintf>
ffffffff80202862:	b8 00 00 00 00       	mov    $0x0,%eax
ffffffff80202867:	e8 df e8 ff ff       	callq  ffffffff8020114b <kmalloc>
ffffffff8020286c:	48 89 c3             	mov    %rax,%rbx
ffffffff8020286f:	48 89 c7             	mov    %rax,%rdi
ffffffff80202872:	48 81 e7 00 f0 ff ff 	and    $0xfffffffffffff000,%rdi
ffffffff80202879:	e8 b8 e9 ff ff       	callq  ffffffff80201236 <physicalAddress>
ffffffff8020287e:	48 89 c5             	mov    %rax,%rbp
ffffffff80202881:	49 81 e6 00 f0 ff ff 	and    $0xfffffffffffff000,%r14
ffffffff80202888:	ba 00 10 00 00       	mov    $0x1000,%edx
ffffffff8020288d:	4c 89 f6             	mov    %r14,%rsi
ffffffff80202890:	48 89 df             	mov    %rbx,%rdi
ffffffff80202893:	e8 7c fd ff ff       	callq  ffffffff80202614 <memcpy>
ffffffff80202898:	48 89 ee             	mov    %rbp,%rsi
ffffffff8020289b:	4c 89 f7             	mov    %r14,%rdi
ffffffff8020289e:	e8 27 e6 ff ff       	callq  ffffffff80200eca <map_v_p2>
ffffffff802028a3:	48 8d 05 9e 7e 01 00 	lea    0x17e9e(%rip),%rax        # ffffffff8021a748 <current>
ffffffff802028aa:	48 8b 00             	mov    (%rax),%rax
ffffffff802028ad:	48 8b 78 50          	mov    0x50(%rax),%rdi
ffffffff802028b1:	e8 e0 e3 ff ff       	callq  ffffffff80200c96 <loadCR3>
ffffffff802028b6:	e9 f5 00 00 00       	jmpq   ffffffff802029b0 <pageFault+0x1d4>
ffffffff802028bb:	49 83 f5 01          	xor    $0x1,%r13
ffffffff802028bf:	41 83 e5 01          	and    $0x1,%r13d
ffffffff802028c3:	48 8d 05 7e 7e 01 00 	lea    0x17e7e(%rip),%rax        # ffffffff8021a748 <current>
ffffffff802028ca:	48 8b 00             	mov    (%rax),%rax
ffffffff802028cd:	48 8b 40 18          	mov    0x18(%rax),%rax
ffffffff802028d1:	48 8b 18             	mov    (%rax),%rbx
ffffffff802028d4:	48 85 db             	test   %rbx,%rbx
ffffffff802028d7:	0f 84 8f 00 00 00    	je     ffffffff8020296c <pageFault+0x190>
ffffffff802028dd:	48 8b 53 08          	mov    0x8(%rbx),%rdx
ffffffff802028e1:	48 8b 6b 10          	mov    0x10(%rbx),%rbp
ffffffff802028e5:	48 8b 43 20          	mov    0x20(%rbx),%rax
ffffffff802028e9:	48 83 f8 03          	cmp    $0x3,%rax
ffffffff802028ed:	75 30                	jne    ffffffff8020291f <pageFault+0x143>
ffffffff802028ef:	49 39 d4             	cmp    %rdx,%r12
ffffffff802028f2:	72 6b                	jb     ffffffff8020295f <pageFault+0x183>
ffffffff802028f4:	49 81 fc 00 00 00 10 	cmp    $0x10000000,%r12
ffffffff802028fb:	77 62                	ja     ffffffff8020295f <pageFault+0x183>
ffffffff802028fd:	b8 00 00 00 00       	mov    $0x0,%eax
ffffffff80202902:	e8 9b fd ff ff       	callq  ffffffff802026a2 <allocatePage>
ffffffff80202907:	48 89 c6             	mov    %rax,%rsi
ffffffff8020290a:	48 89 ef             	mov    %rbp,%rdi
ffffffff8020290d:	e8 b8 e5 ff ff       	callq  ffffffff80200eca <map_v_p2>
ffffffff80202912:	48 81 c5 00 10 00 00 	add    $0x1000,%rbp
ffffffff80202919:	48 89 6b 10          	mov    %rbp,0x10(%rbx)
ffffffff8020291d:	eb 4d                	jmp    ffffffff8020296c <pageFault+0x190>
ffffffff8020291f:	49 39 ec             	cmp    %rbp,%r12
ffffffff80202922:	77 3b                	ja     ffffffff8020295f <pageFault+0x183>
ffffffff80202924:	48 83 f8 02          	cmp    $0x2,%rax
ffffffff80202928:	75 35                	jne    ffffffff8020295f <pageFault+0x183>
ffffffff8020292a:	48 81 ea 00 10 00 00 	sub    $0x1000,%rdx
ffffffff80202931:	48 29 ea             	sub    %rbp,%rdx
ffffffff80202934:	48 81 fa 00 00 02 00 	cmp    $0x20000,%rdx
ffffffff8020293b:	77 22                	ja     ffffffff8020295f <pageFault+0x183>
ffffffff8020293d:	b8 00 00 00 00       	mov    $0x0,%eax
ffffffff80202942:	e8 5b fd ff ff       	callq  ffffffff802026a2 <allocatePage>
ffffffff80202947:	48 89 c6             	mov    %rax,%rsi
ffffffff8020294a:	48 89 ef             	mov    %rbp,%rdi
ffffffff8020294d:	e8 78 e5 ff ff       	callq  ffffffff80200eca <map_v_p2>
ffffffff80202952:	48 81 ed 00 10 00 00 	sub    $0x1000,%rbp
ffffffff80202959:	48 89 6b 10          	mov    %rbp,0x10(%rbx)
ffffffff8020295d:	eb 0d                	jmp    ffffffff8020296c <pageFault+0x190>
ffffffff8020295f:	48 8b 5b 28          	mov    0x28(%rbx),%rbx
ffffffff80202963:	48 85 db             	test   %rbx,%rbx
ffffffff80202966:	0f 85 71 ff ff ff    	jne    ffffffff802028dd <pageFault+0x101>
ffffffff8020296c:	45 85 ed             	test   %r13d,%r13d
ffffffff8020296f:	74 3f                	je     ffffffff802029b0 <pageFault+0x1d4>
ffffffff80202971:	48 85 db             	test   %rbx,%rbx
ffffffff80202974:	75 3a                	jne    ffffffff802029b0 <pageFault+0x1d4>
ffffffff80202976:	4c 89 fa             	mov    %r15,%rdx
ffffffff80202979:	4c 89 f6             	mov    %r14,%rsi
ffffffff8020297c:	48 8d 3d f5 18 00 00 	lea    0x18f5(%rip),%rdi        # ffffffff80204278 <_x86_64_asm_ltr+0x2e0>
ffffffff80202983:	b8 00 00 00 00       	mov    $0x0,%eax
ffffffff80202988:	e8 83 f8 ff ff       	callq  ffffffff80202210 <kprintf>
ffffffff8020298d:	f4                   	hlt    
ffffffff8020298e:	eb 20                	jmp    ffffffff802029b0 <pageFault+0x1d4>
ffffffff80202990:	48 8d 05 b1 7d 01 00 	lea    0x17db1(%rip),%rax        # ffffffff8021a748 <current>
ffffffff80202997:	48 8b 00             	mov    (%rax),%rax
ffffffff8020299a:	48 8b 40 18          	mov    0x18(%rax),%rax
ffffffff8020299e:	48 8b 18             	mov    (%rax),%rbx
ffffffff802029a1:	41 bd 00 00 00 00    	mov    $0x0,%r13d
ffffffff802029a7:	48 85 db             	test   %rbx,%rbx
ffffffff802029aa:	0f 85 2d ff ff ff    	jne    ffffffff802028dd <pageFault+0x101>
ffffffff802029b0:	48 83 c4 08          	add    $0x8,%rsp
ffffffff802029b4:	5b                   	pop    %rbx
ffffffff802029b5:	5d                   	pop    %rbp
ffffffff802029b6:	41 5c                	pop    %r12
ffffffff802029b8:	41 5d                	pop    %r13
ffffffff802029ba:	41 5e                	pop    %r14
ffffffff802029bc:	41 5f                	pop    %r15
ffffffff802029be:	c3                   	retq   

ffffffff802029bf <loadElf>:
ffffffff802029bf:	41 57                	push   %r15
ffffffff802029c1:	41 56                	push   %r14
ffffffff802029c3:	41 55                	push   %r13
ffffffff802029c5:	41 54                	push   %r12
ffffffff802029c7:	55                   	push   %rbp
ffffffff802029c8:	53                   	push   %rbx
ffffffff802029c9:	48 83 ec 28          	sub    $0x28,%rsp
ffffffff802029cd:	48 89 74 24 10       	mov    %rsi,0x10(%rsp)
ffffffff802029d2:	e8 42 e9 ff ff       	callq  ffffffff80201319 <getFile>
ffffffff802029d7:	49 89 c7             	mov    %rax,%r15
ffffffff802029da:	8b 00                	mov    (%rax),%eax
ffffffff802029dc:	b0 00                	mov    $0x0,%al
ffffffff802029de:	3d 00 45 4c 46       	cmp    $0x464c4500,%eax
ffffffff802029e3:	0f 85 f7 02 00 00    	jne    ffffffff80202ce0 <loadElf+0x321>
ffffffff802029e9:	4c 89 7c 24 18       	mov    %r15,0x18(%rsp)
ffffffff802029ee:	4c 89 fd             	mov    %r15,%rbp
ffffffff802029f1:	49 03 6f 20          	add    0x20(%r15),%rbp
ffffffff802029f5:	48 8b 4c 24 10       	mov    0x10(%rsp),%rcx
ffffffff802029fa:	4c 8b 69 18          	mov    0x18(%rcx),%r13
ffffffff802029fe:	49 8b 47 18          	mov    0x18(%r15),%rax
ffffffff80202a02:	48 89 41 30          	mov    %rax,0x30(%rcx)
ffffffff80202a06:	49 c7 45 00 00 00 00 	movq   $0x0,0x0(%r13)
ffffffff80202a0d:	00 
ffffffff80202a0e:	66 41 83 7f 38 00    	cmpw   $0x0,0x38(%r15)
ffffffff80202a14:	0f 84 90 01 00 00    	je     ffffffff80202baa <loadElf+0x1eb>
ffffffff80202a1a:	41 bc 00 00 00 00    	mov    $0x0,%r12d
ffffffff80202a20:	83 7d 00 01          	cmpl   $0x1,0x0(%rbp)
ffffffff80202a24:	0f 85 6b 01 00 00    	jne    ffffffff80202b95 <loadElf+0x1d6>
ffffffff80202a2a:	b8 00 00 00 00       	mov    $0x0,%eax
ffffffff80202a2f:	e8 17 e7 ff ff       	callq  ffffffff8020114b <kmalloc>
ffffffff80202a34:	49 89 c6             	mov    %rax,%r14
ffffffff80202a37:	48 8b 45 10          	mov    0x10(%rbp),%rax
ffffffff80202a3b:	49 89 46 08          	mov    %rax,0x8(%r14)
ffffffff80202a3f:	48 03 45 28          	add    0x28(%rbp),%rax
ffffffff80202a43:	49 89 46 10          	mov    %rax,0x10(%r14)
ffffffff80202a47:	8b 45 04             	mov    0x4(%rbp),%eax
ffffffff80202a4a:	49 89 46 18          	mov    %rax,0x18(%r14)
ffffffff80202a4e:	8b 45 04             	mov    0x4(%rbp),%eax
ffffffff80202a51:	83 f8 05             	cmp    $0x5,%eax
ffffffff80202a54:	75 0a                	jne    ffffffff80202a60 <loadElf+0xa1>
ffffffff80202a56:	49 c7 46 20 00 00 00 	movq   $0x0,0x20(%r14)
ffffffff80202a5d:	00 
ffffffff80202a5e:	eb 12                	jmp    ffffffff80202a72 <loadElf+0xb3>
ffffffff80202a60:	83 f8 06             	cmp    $0x6,%eax
ffffffff80202a63:	0f 95 c0             	setne  %al
ffffffff80202a66:	0f b6 c0             	movzbl %al,%eax
ffffffff80202a69:	48 8d 44 40 01       	lea    0x1(%rax,%rax,2),%rax
ffffffff80202a6e:	49 89 46 20          	mov    %rax,0x20(%r14)
ffffffff80202a72:	49 c7 46 28 00 00 00 	movq   $0x0,0x28(%r14)
ffffffff80202a79:	00 
ffffffff80202a7a:	49 83 7d 00 00       	cmpq   $0x0,0x0(%r13)
ffffffff80202a7f:	75 06                	jne    ffffffff80202a87 <loadElf+0xc8>
ffffffff80202a81:	4d 89 75 00          	mov    %r14,0x0(%r13)
ffffffff80202a85:	eb 08                	jmp    ffffffff80202a8f <loadElf+0xd0>
ffffffff80202a87:	49 8b 45 08          	mov    0x8(%r13),%rax
ffffffff80202a8b:	4c 89 70 28          	mov    %r14,0x28(%rax)
ffffffff80202a8f:	4d 89 2e             	mov    %r13,(%r14)
ffffffff80202a92:	4d 89 75 08          	mov    %r14,0x8(%r13)
ffffffff80202a96:	49 ff 45 50          	incq   0x50(%r13)
ffffffff80202a9a:	49 8b 46 10          	mov    0x10(%r14),%rax
ffffffff80202a9e:	48 c1 e8 0c          	shr    $0xc,%rax
ffffffff80202aa2:	48 ff c0             	inc    %rax
ffffffff80202aa5:	49 8b 56 08          	mov    0x8(%r14),%rdx
ffffffff80202aa9:	48 c1 ea 0c          	shr    $0xc,%rdx
ffffffff80202aad:	48 29 d0             	sub    %rdx,%rax
ffffffff80202ab0:	48 c1 e0 0c          	shl    $0xc,%rax
ffffffff80202ab4:	48 8b 5d 10          	mov    0x10(%rbp),%rbx
ffffffff80202ab8:	48 81 e3 00 f0 ff ff 	and    $0xfffffffffffff000,%rbx
ffffffff80202abf:	48 c1 e8 0c          	shr    $0xc,%rax
ffffffff80202ac3:	48 89 44 24 08       	mov    %rax,0x8(%rsp)
ffffffff80202ac8:	74 23                	je     ffffffff80202aed <loadElf+0x12e>
ffffffff80202aca:	b8 00 00 00 00       	mov    $0x0,%eax
ffffffff80202acf:	e8 ce fb ff ff       	callq  ffffffff802026a2 <allocatePage>
ffffffff80202ad4:	48 89 c6             	mov    %rax,%rsi
ffffffff80202ad7:	48 89 df             	mov    %rbx,%rdi
ffffffff80202ada:	e8 eb e3 ff ff       	callq  ffffffff80200eca <map_v_p2>
ffffffff80202adf:	48 81 c3 00 10 00 00 	add    $0x1000,%rbx
ffffffff80202ae6:	48 ff 4c 24 08       	decq   0x8(%rsp)
ffffffff80202aeb:	75 dd                	jne    ffffffff80202aca <loadElf+0x10b>
ffffffff80202aed:	8b 45 04             	mov    0x4(%rbp),%eax
ffffffff80202af0:	83 e8 05             	sub    $0x5,%eax
ffffffff80202af3:	83 f8 01             	cmp    $0x1,%eax
ffffffff80202af6:	77 2a                	ja     ffffffff80202b22 <loadElf+0x163>
ffffffff80202af8:	48 8b 45 10          	mov    0x10(%rbp),%rax
ffffffff80202afc:	49 89 45 48          	mov    %rax,0x48(%r13)
ffffffff80202b00:	48 8b 45 28          	mov    0x28(%rbp),%rax
ffffffff80202b04:	48 03 45 10          	add    0x10(%rbp),%rax
ffffffff80202b08:	49 89 45 40          	mov    %rax,0x40(%r13)
ffffffff80202b0c:	48 8b 55 20          	mov    0x20(%rbp),%rdx
ffffffff80202b10:	48 8b 74 24 18       	mov    0x18(%rsp),%rsi
ffffffff80202b15:	48 03 75 08          	add    0x8(%rbp),%rsi
ffffffff80202b19:	49 8b 7e 08          	mov    0x8(%r14),%rdi
ffffffff80202b1d:	e8 f2 fa ff ff       	callq  ffffffff80202614 <memcpy>
ffffffff80202b22:	b8 00 00 00 00       	mov    $0x0,%eax
ffffffff80202b27:	e8 1f e6 ff ff       	callq  ffffffff8020114b <kmalloc>
ffffffff80202b2c:	49 89 46 30          	mov    %rax,0x30(%r14)
ffffffff80202b30:	48 8b 4c 24 18       	mov    0x18(%rsp),%rcx
ffffffff80202b35:	48 89 08             	mov    %rcx,(%rax)
ffffffff80202b38:	49 8b 46 30          	mov    0x30(%r14),%rax
ffffffff80202b3c:	48 8b 55 08          	mov    0x8(%rbp),%rdx
ffffffff80202b40:	48 89 50 08          	mov    %rdx,0x8(%rax)
ffffffff80202b44:	49 8b 46 30          	mov    0x30(%r14),%rax
ffffffff80202b48:	48 8b 55 20          	mov    0x20(%rbp),%rdx
ffffffff80202b4c:	48 89 50 10          	mov    %rdx,0x10(%rax)
ffffffff80202b50:	8b 45 04             	mov    0x4(%rbp),%eax
ffffffff80202b53:	83 f8 05             	cmp    $0x5,%eax
ffffffff80202b56:	75 16                	jne    ffffffff80202b6e <loadElf+0x1af>
ffffffff80202b58:	49 c7 46 20 00 00 00 	movq   $0x0,0x20(%r14)
ffffffff80202b5f:	00 
ffffffff80202b60:	49 8b 46 30          	mov    0x30(%r14),%rax
ffffffff80202b64:	48 c7 40 18 00 00 00 	movq   $0x0,0x18(%rax)
ffffffff80202b6b:	00 
ffffffff80202b6c:	eb 27                	jmp    ffffffff80202b95 <loadElf+0x1d6>
ffffffff80202b6e:	83 f8 06             	cmp    $0x6,%eax
ffffffff80202b71:	75 1a                	jne    ffffffff80202b8d <loadElf+0x1ce>
ffffffff80202b73:	49 c7 46 20 01 00 00 	movq   $0x1,0x20(%r14)
ffffffff80202b7a:	00 
ffffffff80202b7b:	49 8b 56 30          	mov    0x30(%r14),%rdx
ffffffff80202b7f:	48 8b 45 28          	mov    0x28(%rbp),%rax
ffffffff80202b83:	48 2b 45 20          	sub    0x20(%rbp),%rax
ffffffff80202b87:	48 89 42 18          	mov    %rax,0x18(%rdx)
ffffffff80202b8b:	eb 08                	jmp    ffffffff80202b95 <loadElf+0x1d6>
ffffffff80202b8d:	49 c7 46 20 04 00 00 	movq   $0x4,0x20(%r14)
ffffffff80202b94:	00 
ffffffff80202b95:	48 83 c5 38          	add    $0x38,%rbp
ffffffff80202b99:	41 ff c4             	inc    %r12d
ffffffff80202b9c:	41 0f b7 47 38       	movzwl 0x38(%r15),%eax
ffffffff80202ba1:	44 39 e0             	cmp    %r12d,%eax
ffffffff80202ba4:	0f 8f 76 fe ff ff    	jg     ffffffff80202a20 <loadElf+0x61>
ffffffff80202baa:	b8 00 00 00 00       	mov    $0x0,%eax
ffffffff80202baf:	e8 97 e5 ff ff       	callq  ffffffff8020114b <kmalloc>
ffffffff80202bb4:	48 89 c3             	mov    %rax,%rbx
ffffffff80202bb7:	49 83 7d 00 00       	cmpq   $0x0,0x0(%r13)
ffffffff80202bbc:	75 06                	jne    ffffffff80202bc4 <loadElf+0x205>
ffffffff80202bbe:	49 89 45 00          	mov    %rax,0x0(%r13)
ffffffff80202bc2:	eb 08                	jmp    ffffffff80202bcc <loadElf+0x20d>
ffffffff80202bc4:	49 8b 45 08          	mov    0x8(%r13),%rax
ffffffff80202bc8:	48 89 58 28          	mov    %rbx,0x28(%rax)
ffffffff80202bcc:	49 8b 45 08          	mov    0x8(%r13),%rax
ffffffff80202bd0:	48 89 58 28          	mov    %rbx,0x28(%rax)
ffffffff80202bd4:	49 89 5d 08          	mov    %rbx,0x8(%r13)
ffffffff80202bd8:	b8 00 00 00 00       	mov    $0x0,%eax
ffffffff80202bdd:	e8 c0 fa ff ff       	callq  ffffffff802026a2 <allocatePage>
ffffffff80202be2:	48 89 c6             	mov    %rax,%rsi
ffffffff80202be5:	48 bf 00 00 00 22 22 	movabs $0x22222000000,%rdi
ffffffff80202bec:	02 00 00 
ffffffff80202bef:	e8 d6 e2 ff ff       	callq  ffffffff80200eca <map_v_p2>
ffffffff80202bf4:	48 bf 00 00 00 22 22 	movabs $0x22222000000,%rdi
ffffffff80202bfb:	02 00 00 
ffffffff80202bfe:	e8 33 e6 ff ff       	callq  ffffffff80201236 <physicalAddress>
ffffffff80202c03:	48 89 c2             	mov    %rax,%rdx
ffffffff80202c06:	48 be 00 00 00 22 22 	movabs $0x22222000000,%rsi
ffffffff80202c0d:	02 00 00 
ffffffff80202c10:	48 8d 3d 1f 14 00 00 	lea    0x141f(%rip),%rdi        # ffffffff80204036 <_x86_64_asm_ltr+0x9e>
ffffffff80202c17:	b8 00 00 00 00       	mov    $0x0,%eax
ffffffff80202c1c:	e8 ef f5 ff ff       	callq  ffffffff80202210 <kprintf>
ffffffff80202c21:	48 b8 00 10 00 22 22 	movabs $0x22222001000,%rax
ffffffff80202c28:	02 00 00 
ffffffff80202c2b:	48 89 43 08          	mov    %rax,0x8(%rbx)
ffffffff80202c2f:	48 b8 00 00 00 22 22 	movabs $0x22222000000,%rax
ffffffff80202c36:	02 00 00 
ffffffff80202c39:	48 89 43 10          	mov    %rax,0x10(%rbx)
ffffffff80202c3d:	48 c7 43 18 05 00 00 	movq   $0x5,0x18(%rbx)
ffffffff80202c44:	00 
ffffffff80202c45:	48 c7 43 20 02 00 00 	movq   $0x2,0x20(%rbx)
ffffffff80202c4c:	00 
ffffffff80202c4d:	48 c7 43 30 00 00 00 	movq   $0x0,0x30(%rbx)
ffffffff80202c54:	00 
ffffffff80202c55:	48 c7 43 28 00 00 00 	movq   $0x0,0x28(%rbx)
ffffffff80202c5c:	00 
ffffffff80202c5d:	48 8b 44 24 10       	mov    0x10(%rsp),%rax
ffffffff80202c62:	48 b9 f0 0f 00 22 22 	movabs $0x22222000ff0,%rcx
ffffffff80202c69:	02 00 00 
ffffffff80202c6c:	48 89 48 28          	mov    %rcx,0x28(%rax)
ffffffff80202c70:	49 ff 45 50          	incq   0x50(%r13)
ffffffff80202c74:	b8 00 00 00 00       	mov    $0x0,%eax
ffffffff80202c79:	e8 cd e4 ff ff       	callq  ffffffff8020114b <kmalloc>
ffffffff80202c7e:	49 8b 55 08          	mov    0x8(%r13),%rdx
ffffffff80202c82:	48 89 42 28          	mov    %rax,0x28(%rdx)
ffffffff80202c86:	49 89 45 08          	mov    %rax,0x8(%r13)
ffffffff80202c8a:	4c 89 28             	mov    %r13,(%rax)
ffffffff80202c8d:	48 c7 40 08 00 00 00 	movq   $0x8000000,0x8(%rax)
ffffffff80202c94:	08 
ffffffff80202c95:	49 c7 45 20 00 00 00 	movq   $0x8000000,0x20(%r13)
ffffffff80202c9c:	08 
ffffffff80202c9d:	48 c7 40 10 00 10 00 	movq   $0x8001000,0x10(%rax)
ffffffff80202ca4:	08 
ffffffff80202ca5:	48 c7 40 18 05 00 00 	movq   $0x5,0x18(%rax)
ffffffff80202cac:	00 
ffffffff80202cad:	48 c7 40 20 03 00 00 	movq   $0x3,0x20(%rax)
ffffffff80202cb4:	00 
ffffffff80202cb5:	48 c7 40 30 00 00 00 	movq   $0x0,0x30(%rax)
ffffffff80202cbc:	00 
ffffffff80202cbd:	48 c7 40 28 00 00 00 	movq   $0x0,0x28(%rax)
ffffffff80202cc4:	00 
ffffffff80202cc5:	b8 00 00 00 00       	mov    $0x0,%eax
ffffffff80202cca:	e8 d3 f9 ff ff       	callq  ffffffff802026a2 <allocatePage>
ffffffff80202ccf:	48 89 c6             	mov    %rax,%rsi
ffffffff80202cd2:	bf 00 00 00 08       	mov    $0x8000000,%edi
ffffffff80202cd7:	e8 ee e1 ff ff       	callq  ffffffff80200eca <map_v_p2>
ffffffff80202cdc:	49 ff 45 50          	incq   0x50(%r13)
ffffffff80202ce0:	b8 00 00 00 00       	mov    $0x0,%eax
ffffffff80202ce5:	48 83 c4 28          	add    $0x28,%rsp
ffffffff80202ce9:	5b                   	pop    %rbx
ffffffff80202cea:	5d                   	pop    %rbp
ffffffff80202ceb:	41 5c                	pop    %r12
ffffffff80202ced:	41 5d                	pop    %r13
ffffffff80202cef:	41 5e                	pop    %r14
ffffffff80202cf1:	41 5f                	pop    %r15
ffffffff80202cf3:	c3                   	retq   

ffffffff80202cf4 <start>:
ffffffff80202cf4:	41 56                	push   %r14
ffffffff80202cf6:	41 55                	push   %r13
ffffffff80202cf8:	41 54                	push   %r12
ffffffff80202cfa:	55                   	push   %rbp
ffffffff80202cfb:	53                   	push   %rbx
ffffffff80202cfc:	48 89 f3             	mov    %rsi,%rbx
ffffffff80202cff:	48 89 d6             	mov    %rdx,%rsi
ffffffff80202d02:	81 3f 01 90 00 00    	cmpl   $0x9001,(%rdi)
ffffffff80202d08:	74 12                	je     ffffffff80202d1c <start+0x28>
ffffffff80202d0a:	8b 47 04             	mov    0x4(%rdi),%eax
ffffffff80202d0d:	8d 40 02             	lea    0x2(%rax),%eax
ffffffff80202d10:	48 8d 3c 87          	lea    (%rdi,%rax,4),%rdi
ffffffff80202d14:	81 3f 01 90 00 00    	cmpl   $0x9001,(%rdi)
ffffffff80202d1a:	75 ee                	jne    ffffffff80202d0a <start+0x16>
ffffffff80202d1c:	48 8d 47 08          	lea    0x8(%rdi),%rax
ffffffff80202d20:	8b 57 04             	mov    0x4(%rdi),%edx
ffffffff80202d23:	4c 8d 44 17 08       	lea    0x8(%rdi,%rdx,1),%r8
ffffffff80202d28:	4c 39 c0             	cmp    %r8,%rax
ffffffff80202d2b:	73 38                	jae    ffffffff80202d65 <start+0x71>
ffffffff80202d2d:	bd 00 00 00 00       	mov    $0x0,%ebp
ffffffff80202d32:	bf 00 00 00 00       	mov    $0x0,%edi
ffffffff80202d37:	ba 00 00 00 00       	mov    $0x0,%edx
ffffffff80202d3c:	83 78 10 01          	cmpl   $0x1,0x10(%rax)
ffffffff80202d40:	75 18                	jne    ffffffff80202d5a <start+0x66>
ffffffff80202d42:	48 8b 48 08          	mov    0x8(%rax),%rcx
ffffffff80202d46:	48 39 f9             	cmp    %rdi,%rcx
ffffffff80202d49:	76 0f                	jbe    ffffffff80202d5a <start+0x66>
ffffffff80202d4b:	48 85 c9             	test   %rcx,%rcx
ffffffff80202d4e:	74 0a                	je     ffffffff80202d5a <start+0x66>
ffffffff80202d50:	48 8b 10             	mov    (%rax),%rdx
ffffffff80202d53:	48 8d 2c 11          	lea    (%rcx,%rdx,1),%rbp
ffffffff80202d57:	48 89 cf             	mov    %rcx,%rdi
ffffffff80202d5a:	48 83 c0 14          	add    $0x14,%rax
ffffffff80202d5e:	4c 39 c0             	cmp    %r8,%rax
ffffffff80202d61:	72 d9                	jb     ffffffff80202d3c <start+0x48>
ffffffff80202d63:	eb 0a                	jmp    ffffffff80202d6f <start+0x7b>
ffffffff80202d65:	bd 00 00 00 00       	mov    $0x0,%ebp
ffffffff80202d6a:	ba 00 00 00 00       	mov    $0x0,%edx
ffffffff80202d6f:	48 89 e9             	mov    %rbp,%rcx
ffffffff80202d72:	48 89 df             	mov    %rbx,%rdi
ffffffff80202d75:	e8 d0 f9 ff ff       	callq  ffffffff8020274a <init_pageTable>
ffffffff80202d7a:	48 89 c6             	mov    %rax,%rsi
ffffffff80202d7d:	48 89 df             	mov    %rbx,%rdi
ffffffff80202d80:	e8 2c e2 ff ff       	callq  ffffffff80200fb1 <kernmemMap>
ffffffff80202d85:	48 89 ef             	mov    %rbp,%rdi
ffffffff80202d88:	e8 18 e3 ff ff       	callq  ffffffff802010a5 <phy2vir>
ffffffff80202d8d:	b8 00 00 00 00       	mov    $0x0,%eax
ffffffff80202d92:	e8 b6 01 00 00       	callq  ffffffff80202f4d <mapProcessID>
ffffffff80202d97:	b8 00 00 00 00       	mov    $0x0,%eax
ffffffff80202d9c:	e8 cb 01 00 00       	callq  ffffffff80202f6c <kernProcess>
ffffffff80202da1:	b8 00 00 00 00       	mov    $0x0,%eax
ffffffff80202da6:	e8 fd e8 ff ff       	callq  ffffffff802016a8 <init_tarfs>
ffffffff80202dab:	48 89 de             	mov    %rbx,%rsi
ffffffff80202dae:	48 8d 3d 95 12 00 00 	lea    0x1295(%rip),%rdi        # ffffffff8020404a <_x86_64_asm_ltr+0xb2>
ffffffff80202db5:	b8 00 00 00 00       	mov    $0x0,%eax
ffffffff80202dba:	e8 51 f4 ff ff       	callq  ffffffff80202210 <kprintf>
ffffffff80202dbf:	4c 8d 25 fa 34 08 00 	lea    0x834fa(%rip),%r12        # ffffffff802862c0 <_binary_tarfs_end>
ffffffff80202dc6:	4c 89 e2             	mov    %r12,%rdx
ffffffff80202dc9:	48 8d 2d f0 7c 01 00 	lea    0x17cf0(%rip),%rbp        # ffffffff8021aac0 <_binary_tarfs_start>
ffffffff80202dd0:	48 89 ee             	mov    %rbp,%rsi
ffffffff80202dd3:	48 8d 3d 7d 12 00 00 	lea    0x127d(%rip),%rdi        # ffffffff80204057 <_x86_64_asm_ltr+0xbf>
ffffffff80202dda:	b8 00 00 00 00       	mov    $0x0,%eax
ffffffff80202ddf:	e8 2c f4 ff ff       	callq  ffffffff80202210 <kprintf>
ffffffff80202de4:	b8 00 00 00 00       	mov    $0x0,%eax
ffffffff80202de9:	e8 1e f0 ff ff       	callq  ffffffff80201e0c <clearScreen>
ffffffff80202dee:	b8 00 00 00 00       	mov    $0x0,%eax
ffffffff80202df3:	e8 98 ef ff ff       	callq  ffffffff80201d90 <printCursor>
ffffffff80202df8:	4c 8d 2d ad 7b 01 00 	lea    0x17bad(%rip),%r13        # ffffffff8021a9ac <yp>
ffffffff80202dff:	41 c7 45 00 00 00 00 	movl   $0x0,0x0(%r13)
ffffffff80202e06:	00 
ffffffff80202e07:	4c 8d 35 92 7b 01 00 	lea    0x17b92(%rip),%r14        # ffffffff8021a9a0 <video>
ffffffff80202e0e:	49 c7 06 00 80 0b 80 	movq   $0xffffffff800b8000,(%r14)
ffffffff80202e15:	48 8d 3d 94 14 00 00 	lea    0x1494(%rip),%rdi        # ffffffff802042b0 <_x86_64_asm_ltr+0x318>
ffffffff80202e1c:	b8 00 00 00 00       	mov    $0x0,%eax
ffffffff80202e21:	e8 ea f3 ff ff       	callq  ffffffff80202210 <kprintf>
ffffffff80202e26:	49 c7 06 a0 80 0b 80 	movq   $0xffffffff800b80a0,(%r14)
ffffffff80202e2d:	41 c7 45 00 01 00 00 	movl   $0x1,0x0(%r13)
ffffffff80202e34:	00 
ffffffff80202e35:	48 8d 05 e4 43 00 00 	lea    0x43e4(%rip),%rax        # ffffffff80207220 <xp>
ffffffff80202e3c:	c7 00 00 00 00 00    	movl   $0x0,(%rax)
ffffffff80202e42:	48 8d 3d 20 12 00 00 	lea    0x1220(%rip),%rdi        # ffffffff80204069 <_x86_64_asm_ltr+0xd1>
ffffffff80202e49:	b8 00 00 00 00       	mov    $0x0,%eax
ffffffff80202e4e:	e8 cf 01 00 00       	callq  ffffffff80203022 <userInitProcess>
ffffffff80202e53:	49 89 c5             	mov    %rax,%r13
ffffffff80202e56:	bf 01 00 00 00       	mov    $0x1,%edi
ffffffff80202e5b:	e8 53 06 00 00       	callq  ffffffff802034b3 <init_timer>
ffffffff80202e60:	b8 00 00 00 00       	mov    $0x0,%eax
ffffffff80202e65:	e8 a5 06 00 00       	callq  ffffffff8020350f <key>
ffffffff80202e6a:	4c 89 ef             	mov    %r13,%rdi
ffffffff80202e6d:	e8 d4 02 00 00       	callq  ffffffff80203146 <switchToRing3>
ffffffff80202e72:	48 89 de             	mov    %rbx,%rsi
ffffffff80202e75:	48 8d 3d ce 11 00 00 	lea    0x11ce(%rip),%rdi        # ffffffff8020404a <_x86_64_asm_ltr+0xb2>
ffffffff80202e7c:	b8 00 00 00 00       	mov    $0x0,%eax
ffffffff80202e81:	e8 8a f3 ff ff       	callq  ffffffff80202210 <kprintf>
ffffffff80202e86:	4c 89 e2             	mov    %r12,%rdx
ffffffff80202e89:	48 89 ee             	mov    %rbp,%rsi
ffffffff80202e8c:	48 8d 3d c4 11 00 00 	lea    0x11c4(%rip),%rdi        # ffffffff80204057 <_x86_64_asm_ltr+0xbf>
ffffffff80202e93:	b8 00 00 00 00       	mov    $0x0,%eax
ffffffff80202e98:	e8 73 f3 ff ff       	callq  ffffffff80202210 <kprintf>
ffffffff80202e9d:	eb fe                	jmp    ffffffff80202e9d <start+0x1a9>

ffffffff80202e9f <boot>:
ffffffff80202e9f:	b8 01 80 0b 00       	mov    $0xb8001,%eax
ffffffff80202ea4:	c6 00 07             	movb   $0x7,(%rax)
ffffffff80202ea7:	48 83 c0 02          	add    $0x2,%rax
ffffffff80202eab:	48 3d a1 8f 0b 00    	cmp    $0xb8fa1,%rax
ffffffff80202eb1:	75 f1                	jne    ffffffff80202ea4 <boot+0x5>
ffffffff80202eb3:	53                   	push   %rbx
ffffffff80202eb4:	48 8d 1d 65 68 01 00 	lea    0x16865(%rip),%rbx        # ffffffff80219720 <loader_stack>
ffffffff80202ebb:	48 8d 05 6e 68 01 00 	lea    0x1686e(%rip),%rax        # ffffffff80219730 <initial_stack>
ffffffff80202ec2:	48 8d 80 00 10 00 00 	lea    0x1000(%rax),%rax
ffffffff80202ec9:	fa                   	cli    
ffffffff80202eca:	48 89 23             	mov    %rsp,(%rbx)
ffffffff80202ecd:	48 89 c4             	mov    %rax,%rsp
ffffffff80202ed0:	b8 00 00 00 00       	mov    $0x0,%eax
ffffffff80202ed5:	e8 37 06 00 00       	callq  ffffffff80203511 <init_gdt>
ffffffff80202eda:	b8 00 00 00 00       	mov    $0x0,%eax
ffffffff80202edf:	e8 09 e9 ff ff       	callq  ffffffff802017ed <isr_install>
ffffffff80202ee4:	48 8b 03             	mov    (%rbx),%rax
ffffffff80202ee7:	8b 50 10             	mov    0x10(%rax),%edx
ffffffff80202eea:	48 8b 35 0f 31 00 00 	mov    0x310f(%rip),%rsi        # ffffffff80206000 <_x86_64_asm_ltr+0x2068>
ffffffff80202ef1:	48 8b 3d 10 31 00 00 	mov    0x3110(%rip),%rdi        # ffffffff80206008 <_x86_64_asm_ltr+0x2070>
ffffffff80202ef8:	48 29 f7             	sub    %rsi,%rdi
ffffffff80202efb:	8b 40 0c             	mov    0xc(%rax),%eax
ffffffff80202efe:	48 01 c7             	add    %rax,%rdi
ffffffff80202f01:	e8 ee fd ff ff       	callq  ffffffff80202cf4 <start>
ffffffff80202f06:	eb fe                	jmp    ffffffff80202f06 <boot+0x67>

ffffffff80202f08 <getPID>:
ffffffff80202f08:	48 8d 05 51 78 01 00 	lea    0x17851(%rip),%rax        # ffffffff8021a760 <pID>
ffffffff80202f0f:	83 38 00             	cmpl   $0x0,(%rax)
ffffffff80202f12:	74 14                	je     ffffffff80202f28 <getPID+0x20>
ffffffff80202f14:	b8 01 00 00 00       	mov    $0x1,%eax
ffffffff80202f19:	48 8d 15 40 78 01 00 	lea    0x17840(%rip),%rdx        # ffffffff8021a760 <pID>
ffffffff80202f20:	83 3c 82 00          	cmpl   $0x0,(%rdx,%rax,4)
ffffffff80202f24:	75 16                	jne    ffffffff80202f3c <getPID+0x34>
ffffffff80202f26:	eb 05                	jmp    ffffffff80202f2d <getPID+0x25>
ffffffff80202f28:	b8 00 00 00 00       	mov    $0x0,%eax
ffffffff80202f2d:	48 8d 15 2c 78 01 00 	lea    0x1782c(%rip),%rdx        # ffffffff8021a760 <pID>
ffffffff80202f34:	c7 04 82 01 00 00 00 	movl   $0x1,(%rdx,%rax,4)
ffffffff80202f3b:	c3                   	retq   
ffffffff80202f3c:	48 ff c0             	inc    %rax
ffffffff80202f3f:	48 83 f8 64          	cmp    $0x64,%rax
ffffffff80202f43:	75 db                	jne    ffffffff80202f20 <getPID+0x18>
ffffffff80202f45:	48 c7 c0 ff ff ff ff 	mov    $0xffffffffffffffff,%rax
ffffffff80202f4c:	c3                   	retq   

ffffffff80202f4d <mapProcessID>:
ffffffff80202f4d:	48 8d 05 0c 78 01 00 	lea    0x1780c(%rip),%rax        # ffffffff8021a760 <pID>
ffffffff80202f54:	48 8d 90 90 01 00 00 	lea    0x190(%rax),%rdx
ffffffff80202f5b:	c7 00 00 00 00 00    	movl   $0x0,(%rax)
ffffffff80202f61:	48 83 c0 04          	add    $0x4,%rax
ffffffff80202f65:	48 39 d0             	cmp    %rdx,%rax
ffffffff80202f68:	75 f1                	jne    ffffffff80202f5b <mapProcessID+0xe>
ffffffff80202f6a:	f3 c3                	repz retq 

ffffffff80202f6c <kernProcess>:
ffffffff80202f6c:	53                   	push   %rbx
ffffffff80202f6d:	b8 00 00 00 00       	mov    $0x0,%eax
ffffffff80202f72:	e8 d4 e1 ff ff       	callq  ffffffff8020114b <kmalloc>
ffffffff80202f77:	48 89 c3             	mov    %rax,%rbx
ffffffff80202f7a:	b8 00 00 00 00       	mov    $0x0,%eax
ffffffff80202f7f:	e8 84 ff ff ff       	callq  ffffffff80202f08 <getPID>
ffffffff80202f84:	48 89 03             	mov    %rax,(%rbx)
ffffffff80202f87:	48 c7 43 08 00 00 00 	movq   $0x0,0x8(%rbx)
ffffffff80202f8e:	00 
ffffffff80202f8f:	48 8d 05 e5 02 00 00 	lea    0x2e5(%rip),%rax        # ffffffff8020327b <init_func>
ffffffff80202f96:	48 89 43 30          	mov    %rax,0x30(%rbx)
ffffffff80202f9a:	48 c7 43 38 02 00 00 	movq   $0x2,0x38(%rbx)
ffffffff80202fa1:	00 
ffffffff80202fa2:	48 c7 43 40 00 00 00 	movq   $0x0,0x40(%rbx)
ffffffff80202fa9:	00 
ffffffff80202faa:	48 c7 43 48 00 00 00 	movq   $0x0,0x48(%rbx)
ffffffff80202fb1:	00 
ffffffff80202fb2:	48 c7 83 58 01 00 00 	movq   $0xffffffffffffffff,0x158(%rbx)
ffffffff80202fb9:	ff ff ff ff 
ffffffff80202fbd:	b8 00 00 00 00       	mov    $0x0,%eax
ffffffff80202fc2:	e8 d8 dc ff ff       	callq  ffffffff80200c9f <getCR3>
ffffffff80202fc7:	48 89 43 50          	mov    %rax,0x50(%rbx)
ffffffff80202fcb:	48 8d 73 58          	lea    0x58(%rbx),%rsi
ffffffff80202fcf:	48 8d 3d 9d 10 00 00 	lea    0x109d(%rip),%rdi        # ffffffff80204073 <_x86_64_asm_ltr+0xdb>
ffffffff80202fd6:	e8 9a f5 ff ff       	callq  ffffffff80202575 <strcpy>
ffffffff80202fdb:	c7 83 60 01 00 00 00 	movl   $0x0,0x160(%rbx)
ffffffff80202fe2:	00 00 00 
ffffffff80202fe5:	48 8d 05 04 79 01 00 	lea    0x17904(%rip),%rax        # ffffffff8021a8f0 <first>
ffffffff80202fec:	48 89 18             	mov    %rbx,(%rax)
ffffffff80202fef:	b8 00 00 00 00       	mov    $0x0,%eax
ffffffff80202ff4:	e8 52 e1 ff ff       	callq  ffffffff8020114b <kmalloc>
ffffffff80202ff9:	48 05 f0 0f 00 00    	add    $0xff0,%rax
ffffffff80202fff:	48 89 43 10          	mov    %rax,0x10(%rbx)
ffffffff80203003:	48 89 43 20          	mov    %rax,0x20(%rbx)
ffffffff80203007:	48 89 43 28          	mov    %rax,0x28(%rbx)
ffffffff8020300b:	48 c7 83 88 01 00 00 	movq   $0x0,0x188(%rbx)
ffffffff80203012:	00 00 00 00 
ffffffff80203016:	48 8d 05 2b 77 01 00 	lea    0x1772b(%rip),%rax        # ffffffff8021a748 <current>
ffffffff8020301d:	48 89 18             	mov    %rbx,(%rax)
ffffffff80203020:	5b                   	pop    %rbx
ffffffff80203021:	c3                   	retq   

ffffffff80203022 <userInitProcess>:
ffffffff80203022:	41 54                	push   %r12
ffffffff80203024:	55                   	push   %rbp
ffffffff80203025:	53                   	push   %rbx
ffffffff80203026:	49 89 fc             	mov    %rdi,%r12
ffffffff80203029:	b8 00 00 00 00       	mov    $0x0,%eax
ffffffff8020302e:	e8 18 e1 ff ff       	callq  ffffffff8020114b <kmalloc>
ffffffff80203033:	48 89 c3             	mov    %rax,%rbx
ffffffff80203036:	b8 00 00 00 00       	mov    $0x0,%eax
ffffffff8020303b:	e8 c8 fe ff ff       	callq  ffffffff80202f08 <getPID>
ffffffff80203040:	48 89 03             	mov    %rax,(%rbx)
ffffffff80203043:	48 c7 43 08 00 00 00 	movq   $0x0,0x8(%rbx)
ffffffff8020304a:	00 
ffffffff8020304b:	48 8d 05 29 02 00 00 	lea    0x229(%rip),%rax        # ffffffff8020327b <init_func>
ffffffff80203052:	48 89 43 30          	mov    %rax,0x30(%rbx)
ffffffff80203056:	48 c7 43 38 00 00 00 	movq   $0x0,0x38(%rbx)
ffffffff8020305d:	00 
ffffffff8020305e:	48 c7 43 40 00 00 00 	movq   $0x0,0x40(%rbx)
ffffffff80203065:	00 
ffffffff80203066:	48 c7 43 48 00 00 00 	movq   $0x0,0x48(%rbx)
ffffffff8020306d:	00 
ffffffff8020306e:	48 c7 83 58 01 00 00 	movq   $0xffffffffffffffff,0x158(%rbx)
ffffffff80203075:	ff ff ff ff 
ffffffff80203079:	48 8d 73 58          	lea    0x58(%rbx),%rsi
ffffffff8020307d:	4c 89 e7             	mov    %r12,%rdi
ffffffff80203080:	e8 f0 f4 ff ff       	callq  ffffffff80202575 <strcpy>
ffffffff80203085:	48 8d b3 64 01 00 00 	lea    0x164(%rbx),%rsi
ffffffff8020308c:	48 8d 3d e7 0f 00 00 	lea    0xfe7(%rip),%rdi        # ffffffff8020407a <_x86_64_asm_ltr+0xe2>
ffffffff80203093:	e8 dd f4 ff ff       	callq  ffffffff80202575 <strcpy>
ffffffff80203098:	c7 83 60 01 00 00 00 	movl   $0x0,0x160(%rbx)
ffffffff8020309f:	00 00 00 
ffffffff802030a2:	48 c7 83 88 01 00 00 	movq   $0x0,0x188(%rbx)
ffffffff802030a9:	00 00 00 00 
ffffffff802030ad:	48 8d 05 8c 76 01 00 	lea    0x1768c(%rip),%rax        # ffffffff8021a740 <last>
ffffffff802030b4:	48 89 18             	mov    %rbx,(%rax)
ffffffff802030b7:	b8 00 00 00 00       	mov    $0x0,%eax
ffffffff802030bc:	e8 50 e0 ff ff       	callq  ffffffff80201111 <setUserSpace>
ffffffff802030c1:	48 89 43 50          	mov    %rax,0x50(%rbx)
ffffffff802030c5:	b8 00 00 00 00       	mov    $0x0,%eax
ffffffff802030ca:	e8 d0 db ff ff       	callq  ffffffff80200c9f <getCR3>
ffffffff802030cf:	48 89 c5             	mov    %rax,%rbp
ffffffff802030d2:	48 8b 7b 50          	mov    0x50(%rbx),%rdi
ffffffff802030d6:	e8 bb db ff ff       	callq  ffffffff80200c96 <loadCR3>
ffffffff802030db:	b8 00 00 00 00       	mov    $0x0,%eax
ffffffff802030e0:	e8 66 e0 ff ff       	callq  ffffffff8020114b <kmalloc>
ffffffff802030e5:	48 89 43 18          	mov    %rax,0x18(%rbx)
ffffffff802030e9:	48 c7 40 50 00 00 00 	movq   $0x0,0x50(%rax)
ffffffff802030f0:	00 
ffffffff802030f1:	b8 00 00 00 00       	mov    $0x0,%eax
ffffffff802030f6:	e8 50 e0 ff ff       	callq  ffffffff8020114b <kmalloc>
ffffffff802030fb:	48 05 f0 0f 00 00    	add    $0xff0,%rax
ffffffff80203101:	48 89 43 10          	mov    %rax,0x10(%rbx)
ffffffff80203105:	48 89 43 20          	mov    %rax,0x20(%rbx)
ffffffff80203109:	48 89 de             	mov    %rbx,%rsi
ffffffff8020310c:	4c 89 e7             	mov    %r12,%rdi
ffffffff8020310f:	e8 ab f8 ff ff       	callq  ffffffff802029bf <loadElf>
ffffffff80203114:	48 8d 05 2d 76 01 00 	lea    0x1762d(%rip),%rax        # ffffffff8021a748 <current>
ffffffff8020311b:	48 8b 10             	mov    (%rax),%rdx
ffffffff8020311e:	eb 03                	jmp    ffffffff80203123 <userInitProcess+0x101>
ffffffff80203120:	48 89 c2             	mov    %rax,%rdx
ffffffff80203123:	48 8b 82 88 01 00 00 	mov    0x188(%rdx),%rax
ffffffff8020312a:	48 85 c0             	test   %rax,%rax
ffffffff8020312d:	75 f1                	jne    ffffffff80203120 <userInitProcess+0xfe>
ffffffff8020312f:	48 89 9a 88 01 00 00 	mov    %rbx,0x188(%rdx)
ffffffff80203136:	48 89 ef             	mov    %rbp,%rdi
ffffffff80203139:	e8 58 db ff ff       	callq  ffffffff80200c96 <loadCR3>
ffffffff8020313e:	48 89 d8             	mov    %rbx,%rax
ffffffff80203141:	5b                   	pop    %rbx
ffffffff80203142:	5d                   	pop    %rbp
ffffffff80203143:	41 5c                	pop    %r12
ffffffff80203145:	c3                   	retq   

ffffffff80203146 <switchToRing3>:
ffffffff80203146:	53                   	push   %rbx
ffffffff80203147:	48 89 fb             	mov    %rdi,%rbx
ffffffff8020314a:	48 8b 7f 10          	mov    0x10(%rdi),%rdi
ffffffff8020314e:	e8 4c 04 00 00       	callq  ffffffff8020359f <set_tss_rsp>
ffffffff80203153:	48 8d 05 ee 75 01 00 	lea    0x175ee(%rip),%rax        # ffffffff8021a748 <current>
ffffffff8020315a:	48 89 18             	mov    %rbx,(%rax)
ffffffff8020315d:	48 8b 43 50          	mov    0x50(%rbx),%rax
ffffffff80203161:	fa                   	cli    
ffffffff80203162:	0f 22 d8             	mov    %rax,%cr3
ffffffff80203165:	66 b8 23 00          	mov    $0x23,%ax
ffffffff80203169:	8e d8                	mov    %eax,%ds
ffffffff8020316b:	8e c0                	mov    %eax,%es
ffffffff8020316d:	8e e0                	mov    %eax,%fs
ffffffff8020316f:	8e e8                	mov    %eax,%gs
ffffffff80203171:	6a 23                	pushq  $0x23
ffffffff80203173:	48 8b 43 28          	mov    0x28(%rbx),%rax
ffffffff80203177:	48 89 c0             	mov    %rax,%rax
ffffffff8020317a:	6a 23                	pushq  $0x23
ffffffff8020317c:	50                   	push   %rax
ffffffff8020317d:	9c                   	pushfq 
ffffffff8020317e:	58                   	pop    %rax
ffffffff8020317f:	48 0d 00 02 00 00    	or     $0x200,%rax
ffffffff80203185:	50                   	push   %rax
ffffffff80203186:	6a 2b                	pushq  $0x2b
ffffffff80203188:	48 8b 43 30          	mov    0x30(%rbx),%rax
ffffffff8020318c:	50                   	push   %rax
ffffffff8020318d:	48 c7 c7 00 00 00 00 	mov    $0x0,%rdi
ffffffff80203194:	48 c7 c6 00 00 00 00 	mov    $0x0,%rsi
ffffffff8020319b:	48 cf                	iretq  
ffffffff8020319d:	5b                   	pop    %rbx
ffffffff8020319e:	c3                   	retq   

ffffffff8020319f <contextSwitch>:
ffffffff8020319f:	55                   	push   %rbp
ffffffff802031a0:	53                   	push   %rbx
ffffffff802031a1:	48 83 ec 08          	sub    $0x8,%rsp
ffffffff802031a5:	48 89 fb             	mov    %rdi,%rbx
ffffffff802031a8:	48 89 f5             	mov    %rsi,%rbp
ffffffff802031ab:	48 8b 7f 10          	mov    0x10(%rdi),%rdi
ffffffff802031af:	e8 eb 03 00 00       	callq  ffffffff8020359f <set_tss_rsp>
ffffffff802031b4:	48 c7 43 38 02 00 00 	movq   $0x2,0x38(%rbx)
ffffffff802031bb:	00 
ffffffff802031bc:	48 8b 7b 50          	mov    0x50(%rbx),%rdi
ffffffff802031c0:	e8 d1 da ff ff       	callq  ffffffff80200c96 <loadCR3>
ffffffff802031c5:	48 8d 45 10          	lea    0x10(%rbp),%rax
ffffffff802031c9:	fb                   	sti    
ffffffff802031ca:	48 89 20             	mov    %rsp,(%rax)
ffffffff802031cd:	48 8b 43 10          	mov    0x10(%rbx),%rax
ffffffff802031d1:	48 89 c4             	mov    %rax,%rsp
ffffffff802031d4:	48 c7 c6 fd 31 20 80 	mov    $0xffffffff802031fd,%rsi
ffffffff802031db:	48 89 75 30          	mov    %rsi,0x30(%rbp)
ffffffff802031df:	4c 8b 43 30          	mov    0x30(%rbx),%r8
ffffffff802031e3:	41 50                	push   %r8
ffffffff802031e5:	48 89 d9             	mov    %rbx,%rcx
ffffffff802031e8:	48 89 ea             	mov    %rbp,%rdx
ffffffff802031eb:	48 8d 3d f6 10 00 00 	lea    0x10f6(%rip),%rdi        # ffffffff802042e8 <_x86_64_asm_ltr+0x350>
ffffffff802031f2:	b8 00 00 00 00       	mov    $0x0,%eax
ffffffff802031f7:	e8 14 f0 ff ff       	callq  ffffffff80202210 <kprintf>
ffffffff802031fc:	c3                   	retq   
ffffffff802031fd:	48 8d 3d 83 0e 00 00 	lea    0xe83(%rip),%rdi        # ffffffff80204087 <_x86_64_asm_ltr+0xef>
ffffffff80203204:	b8 00 00 00 00       	mov    $0x0,%eax
ffffffff80203209:	e8 02 f0 ff ff       	callq  ffffffff80202210 <kprintf>
ffffffff8020320e:	48 83 c4 08          	add    $0x8,%rsp
ffffffff80203212:	5b                   	pop    %rbx
ffffffff80203213:	5d                   	pop    %rbp
ffffffff80203214:	c3                   	retq   

ffffffff80203215 <schedule>:
ffffffff80203215:	53                   	push   %rbx
ffffffff80203216:	48 8d 1d 2b 75 01 00 	lea    0x1752b(%rip),%rbx        # ffffffff8021a748 <current>
ffffffff8020321d:	48 8b 03             	mov    (%rbx),%rax
ffffffff80203220:	48 8b 30             	mov    (%rax),%rsi
ffffffff80203223:	48 8d 3d 63 0e 00 00 	lea    0xe63(%rip),%rdi        # ffffffff8020408d <_x86_64_asm_ltr+0xf5>
ffffffff8020322a:	b8 00 00 00 00       	mov    $0x0,%eax
ffffffff8020322f:	e8 dc ef ff ff       	callq  ffffffff80202210 <kprintf>
ffffffff80203234:	48 8b 33             	mov    (%rbx),%rsi
ffffffff80203237:	48 8d 05 02 75 01 00 	lea    0x17502(%rip),%rax        # ffffffff8021a740 <last>
ffffffff8020323e:	48 3b 30             	cmp    (%rax),%rsi
ffffffff80203241:	74 13                	je     ffffffff80203256 <schedule+0x41>
ffffffff80203243:	48 8b 96 88 01 00 00 	mov    0x188(%rsi),%rdx
ffffffff8020324a:	48 8d 05 f7 74 01 00 	lea    0x174f7(%rip),%rax        # ffffffff8021a748 <current>
ffffffff80203251:	48 89 10             	mov    %rdx,(%rax)
ffffffff80203254:	eb 14                	jmp    ffffffff8020326a <schedule+0x55>
ffffffff80203256:	48 8d 05 93 76 01 00 	lea    0x17693(%rip),%rax        # ffffffff8021a8f0 <first>
ffffffff8020325d:	48 8b 10             	mov    (%rax),%rdx
ffffffff80203260:	48 8d 05 e1 74 01 00 	lea    0x174e1(%rip),%rax        # ffffffff8021a748 <current>
ffffffff80203267:	48 89 10             	mov    %rdx,(%rax)
ffffffff8020326a:	48 8d 05 d7 74 01 00 	lea    0x174d7(%rip),%rax        # ffffffff8021a748 <current>
ffffffff80203271:	48 8b 38             	mov    (%rax),%rdi
ffffffff80203274:	e8 26 ff ff ff       	callq  ffffffff8020319f <contextSwitch>
ffffffff80203279:	5b                   	pop    %rbx
ffffffff8020327a:	c3                   	retq   

ffffffff8020327b <init_func>:
ffffffff8020327b:	48 83 ec 08          	sub    $0x8,%rsp
ffffffff8020327f:	b8 00 00 00 00       	mov    $0x0,%eax
ffffffff80203284:	e8 8c ff ff ff       	callq  ffffffff80203215 <schedule>
ffffffff80203289:	eb f4                	jmp    ffffffff8020327f <init_func+0x4>

ffffffff8020328b <time_func>:
ffffffff8020328b:	41 54                	push   %r12
ffffffff8020328d:	55                   	push   %rbp
ffffffff8020328e:	53                   	push   %rbx
ffffffff8020328f:	48 8d 05 b2 3f 00 00 	lea    0x3fb2(%rip),%rax        # ffffffff80207248 <count>
ffffffff80203296:	48 8b 18             	mov    (%rax),%rbx
ffffffff80203299:	48 8d 4b 01          	lea    0x1(%rbx),%rcx
ffffffff8020329d:	48 89 08             	mov    %rcx,(%rax)
ffffffff802032a0:	48 8d 05 79 3f 00 00 	lea    0x3f79(%rip),%rax        # ffffffff80207220 <xp>
ffffffff802032a7:	0f b6 28             	movzbl (%rax),%ebp
ffffffff802032aa:	48 8d 05 fb 76 01 00 	lea    0x176fb(%rip),%rax        # ffffffff8021a9ac <yp>
ffffffff802032b1:	0f b6 18             	movzbl (%rax),%ebx
ffffffff802032b4:	48 8d 05 e5 76 01 00 	lea    0x176e5(%rip),%rax        # ffffffff8021a9a0 <video>
ffffffff802032bb:	4c 8b 20             	mov    (%rax),%r12
ffffffff802032be:	48 c7 00 00 80 0b 80 	movq   $0xffffffff800b8000,(%rax)
ffffffff802032c5:	48 ba 83 2d d8 82 2d 	movabs $0x2d82d82d82d82d83,%rdx
ffffffff802032cc:	d8 82 2d 
ffffffff802032cf:	48 89 c8             	mov    %rcx,%rax
ffffffff802032d2:	48 f7 e2             	mul    %rdx
ffffffff802032d5:	48 c1 ea 04          	shr    $0x4,%rdx
ffffffff802032d9:	48 6b d2 5a          	imul   $0x5a,%rdx,%rdx
ffffffff802032dd:	48 39 d1             	cmp    %rdx,%rcx
ffffffff802032e0:	0f 85 88 01 00 00    	jne    ffffffff8020346e <time_func+0x1e3>
ffffffff802032e6:	48 8d 05 43 3f 00 00 	lea    0x3f43(%rip),%rax        # ffffffff80207230 <time>
ffffffff802032ed:	48 8b 38             	mov    (%rax),%rdi
ffffffff802032f0:	48 8d 4f 01          	lea    0x1(%rdi),%rcx
ffffffff802032f4:	48 89 08             	mov    %rcx,(%rax)
ffffffff802032f7:	48 be 89 88 88 88 88 	movabs $0x8888888888888889,%rsi
ffffffff802032fe:	88 88 88 
ffffffff80203301:	48 89 c8             	mov    %rcx,%rax
ffffffff80203304:	48 f7 e6             	mul    %rsi
ffffffff80203307:	48 89 d7             	mov    %rdx,%rdi
ffffffff8020330a:	48 c1 ef 05          	shr    $0x5,%rdi
ffffffff8020330e:	48 89 fa             	mov    %rdi,%rdx
ffffffff80203311:	48 c1 e2 06          	shl    $0x6,%rdx
ffffffff80203315:	48 8d 04 b9          	lea    (%rcx,%rdi,4),%rax
ffffffff80203319:	48 29 d0             	sub    %rdx,%rax
ffffffff8020331c:	48 8d 15 21 3f 00 00 	lea    0x3f21(%rip),%rdx        # ffffffff80207244 <sec>
ffffffff80203323:	89 02                	mov    %eax,(%rdx)
ffffffff80203325:	48 89 f8             	mov    %rdi,%rax
ffffffff80203328:	48 f7 e6             	mul    %rsi
ffffffff8020332b:	48 c1 ea 05          	shr    $0x5,%rdx
ffffffff8020332f:	48 89 d6             	mov    %rdx,%rsi
ffffffff80203332:	48 c1 e6 06          	shl    $0x6,%rsi
ffffffff80203336:	48 8d 04 97          	lea    (%rdi,%rdx,4),%rax
ffffffff8020333a:	48 29 f0             	sub    %rsi,%rax
ffffffff8020333d:	48 8d 15 f8 3e 00 00 	lea    0x3ef8(%rip),%rdx        # ffffffff8020723c <min>
ffffffff80203344:	89 02                	mov    %eax,(%rdx)
ffffffff80203346:	48 c1 e9 04          	shr    $0x4,%rcx
ffffffff8020334a:	48 ba 81 6f 5e 4d 3c 	movabs $0x91a2b3c4d5e6f81,%rdx
ffffffff80203351:	2b 1a 09 
ffffffff80203354:	48 89 c8             	mov    %rcx,%rax
ffffffff80203357:	48 f7 e2             	mul    %rdx
ffffffff8020335a:	48 89 d1             	mov    %rdx,%rcx
ffffffff8020335d:	48 c1 e9 03          	shr    $0x3,%rcx
ffffffff80203361:	48 8d 05 c0 3e 00 00 	lea    0x3ec0(%rip),%rax        # ffffffff80207228 <temp>
ffffffff80203368:	48 89 08             	mov    %rcx,(%rax)
ffffffff8020336b:	48 8d 3d c6 3e 00 00 	lea    0x3ec6(%rip),%rdi        # ffffffff80207238 <hour>
ffffffff80203372:	8b 0f                	mov    (%rdi),%ecx
ffffffff80203374:	ba 89 88 88 88       	mov    $0x88888889,%edx
ffffffff80203379:	89 c8                	mov    %ecx,%eax
ffffffff8020337b:	f7 ea                	imul   %edx
ffffffff8020337d:	8d 34 0a             	lea    (%rdx,%rcx,1),%esi
ffffffff80203380:	c1 fe 05             	sar    $0x5,%esi
ffffffff80203383:	89 c8                	mov    %ecx,%eax
ffffffff80203385:	c1 f8 1f             	sar    $0x1f,%eax
ffffffff80203388:	29 c6                	sub    %eax,%esi
ffffffff8020338a:	6b f6 3c             	imul   $0x3c,%esi,%esi
ffffffff8020338d:	29 f1                	sub    %esi,%ecx
ffffffff8020338f:	89 ce                	mov    %ecx,%esi
ffffffff80203391:	89 0f                	mov    %ecx,(%rdi)
ffffffff80203393:	83 f9 09             	cmp    $0x9,%ecx
ffffffff80203396:	7f 2d                	jg     ffffffff802033c5 <time_func+0x13a>
ffffffff80203398:	48 8d 3d 77 0c 00 00 	lea    0xc77(%rip),%rdi        # ffffffff80204016 <_x86_64_asm_ltr+0x7e>
ffffffff8020339f:	b8 00 00 00 00       	mov    $0x0,%eax
ffffffff802033a4:	e8 67 ee ff ff       	callq  ffffffff80202210 <kprintf>
ffffffff802033a9:	48 8d 05 88 3e 00 00 	lea    0x3e88(%rip),%rax        # ffffffff80207238 <hour>
ffffffff802033b0:	8b 30                	mov    (%rax),%esi
ffffffff802033b2:	48 8d 3d de 0c 00 00 	lea    0xcde(%rip),%rdi        # ffffffff80204097 <_x86_64_asm_ltr+0xff>
ffffffff802033b9:	b8 00 00 00 00       	mov    $0x0,%eax
ffffffff802033be:	e8 4d ee ff ff       	callq  ffffffff80202210 <kprintf>
ffffffff802033c3:	eb 11                	jmp    ffffffff802033d6 <time_func+0x14b>
ffffffff802033c5:	48 8d 3d cb 0c 00 00 	lea    0xccb(%rip),%rdi        # ffffffff80204097 <_x86_64_asm_ltr+0xff>
ffffffff802033cc:	b8 00 00 00 00       	mov    $0x0,%eax
ffffffff802033d1:	e8 3a ee ff ff       	callq  ffffffff80202210 <kprintf>
ffffffff802033d6:	48 8d 05 5f 3e 00 00 	lea    0x3e5f(%rip),%rax        # ffffffff8020723c <min>
ffffffff802033dd:	8b 30                	mov    (%rax),%esi
ffffffff802033df:	83 fe 09             	cmp    $0x9,%esi
ffffffff802033e2:	7f 2d                	jg     ffffffff80203411 <time_func+0x186>
ffffffff802033e4:	48 8d 3d 2b 0c 00 00 	lea    0xc2b(%rip),%rdi        # ffffffff80204016 <_x86_64_asm_ltr+0x7e>
ffffffff802033eb:	b8 00 00 00 00       	mov    $0x0,%eax
ffffffff802033f0:	e8 1b ee ff ff       	callq  ffffffff80202210 <kprintf>
ffffffff802033f5:	48 8d 05 40 3e 00 00 	lea    0x3e40(%rip),%rax        # ffffffff8020723c <min>
ffffffff802033fc:	8b 30                	mov    (%rax),%esi
ffffffff802033fe:	48 8d 3d 92 0c 00 00 	lea    0xc92(%rip),%rdi        # ffffffff80204097 <_x86_64_asm_ltr+0xff>
ffffffff80203405:	b8 00 00 00 00       	mov    $0x0,%eax
ffffffff8020340a:	e8 01 ee ff ff       	callq  ffffffff80202210 <kprintf>
ffffffff8020340f:	eb 11                	jmp    ffffffff80203422 <time_func+0x197>
ffffffff80203411:	48 8d 3d 7f 0c 00 00 	lea    0xc7f(%rip),%rdi        # ffffffff80204097 <_x86_64_asm_ltr+0xff>
ffffffff80203418:	b8 00 00 00 00       	mov    $0x0,%eax
ffffffff8020341d:	e8 ee ed ff ff       	callq  ffffffff80202210 <kprintf>
ffffffff80203422:	48 8d 05 1b 3e 00 00 	lea    0x3e1b(%rip),%rax        # ffffffff80207244 <sec>
ffffffff80203429:	8b 30                	mov    (%rax),%esi
ffffffff8020342b:	83 fe 09             	cmp    $0x9,%esi
ffffffff8020342e:	7f 2d                	jg     ffffffff8020345d <time_func+0x1d2>
ffffffff80203430:	48 8d 3d df 0b 00 00 	lea    0xbdf(%rip),%rdi        # ffffffff80204016 <_x86_64_asm_ltr+0x7e>
ffffffff80203437:	b8 00 00 00 00       	mov    $0x0,%eax
ffffffff8020343c:	e8 cf ed ff ff       	callq  ffffffff80202210 <kprintf>
ffffffff80203441:	48 8d 05 fc 3d 00 00 	lea    0x3dfc(%rip),%rax        # ffffffff80207244 <sec>
ffffffff80203448:	8b 30                	mov    (%rax),%esi
ffffffff8020344a:	48 8d 3d 43 0c 00 00 	lea    0xc43(%rip),%rdi        # ffffffff80204094 <_x86_64_asm_ltr+0xfc>
ffffffff80203451:	b8 00 00 00 00       	mov    $0x0,%eax
ffffffff80203456:	e8 b5 ed ff ff       	callq  ffffffff80202210 <kprintf>
ffffffff8020345b:	eb 11                	jmp    ffffffff8020346e <time_func+0x1e3>
ffffffff8020345d:	48 8d 3d 30 0c 00 00 	lea    0xc30(%rip),%rdi        # ffffffff80204094 <_x86_64_asm_ltr+0xfc>
ffffffff80203464:	b8 00 00 00 00       	mov    $0x0,%eax
ffffffff80203469:	e8 a2 ed ff ff       	callq  ffffffff80202210 <kprintf>
ffffffff8020346e:	48 8d 05 2b 75 01 00 	lea    0x1752b(%rip),%rax        # ffffffff8021a9a0 <video>
ffffffff80203475:	4c 89 20             	mov    %r12,(%rax)
ffffffff80203478:	48 8d 05 a1 3d 00 00 	lea    0x3da1(%rip),%rax        # ffffffff80207220 <xp>
ffffffff8020347f:	40 88 28             	mov    %bpl,(%rax)
ffffffff80203482:	48 8d 05 23 75 01 00 	lea    0x17523(%rip),%rax        # ffffffff8021a9ac <yp>
ffffffff80203489:	88 18                	mov    %bl,(%rax)
ffffffff8020348b:	5b                   	pop    %rbx
ffffffff8020348c:	5d                   	pop    %rbp
ffffffff8020348d:	41 5c                	pop    %r12
ffffffff8020348f:	c3                   	retq   

ffffffff80203490 <key_press>:
ffffffff80203490:	48 83 ec 08          	sub    $0x8,%rsp
ffffffff80203494:	48 8d 05 a5 3d 00 00 	lea    0x3da5(%rip),%rax        # ffffffff80207240 <kk>
ffffffff8020349b:	8b 30                	mov    (%rax),%esi
ffffffff8020349d:	48 8d 3d f7 0b 00 00 	lea    0xbf7(%rip),%rdi        # ffffffff8020409b <_x86_64_asm_ltr+0x103>
ffffffff802034a4:	b8 00 00 00 00       	mov    $0x0,%eax
ffffffff802034a9:	e8 62 ed ff ff       	callq  ffffffff80202210 <kprintf>
ffffffff802034ae:	48 83 c4 08          	add    $0x8,%rsp
ffffffff802034b2:	c3                   	retq   

ffffffff802034b3 <init_timer>:
ffffffff802034b3:	55                   	push   %rbp
ffffffff802034b4:	53                   	push   %rbx
ffffffff802034b5:	48 83 ec 08          	sub    $0x8,%rsp
ffffffff802034b9:	89 fd                	mov    %edi,%ebp
ffffffff802034bb:	fb                   	sti    
ffffffff802034bc:	48 8d 35 c8 fd ff ff 	lea    -0x238(%rip),%rsi        # ffffffff8020328b <time_func>
ffffffff802034c3:	bf 20 00 00 00       	mov    $0x20,%edi
ffffffff802034c8:	e8 11 e3 ff ff       	callq  ffffffff802017de <register_interrupt_handler>
ffffffff802034cd:	48 8d 05 dc 74 01 00 	lea    0x174dc(%rip),%rax        # ffffffff8021a9b0 <def_freq>
ffffffff802034d4:	8b 00                	mov    (%rax),%eax
ffffffff802034d6:	ba 00 00 00 00       	mov    $0x0,%edx
ffffffff802034db:	f7 f5                	div    %ebp
ffffffff802034dd:	89 c3                	mov    %eax,%ebx
ffffffff802034df:	be 36 00 00 00       	mov    $0x36,%esi
ffffffff802034e4:	bf 43 00 00 00       	mov    $0x43,%edi
ffffffff802034e9:	e8 84 e8 ff ff       	callq  ffffffff80201d72 <outb>
ffffffff802034ee:	0f b6 f3             	movzbl %bl,%esi
ffffffff802034f1:	bf 40 00 00 00       	mov    $0x40,%edi
ffffffff802034f6:	e8 77 e8 ff ff       	callq  ffffffff80201d72 <outb>
ffffffff802034fb:	0f b6 f7             	movzbl %bh,%esi
ffffffff802034fe:	bf 40 00 00 00       	mov    $0x40,%edi
ffffffff80203503:	e8 6a e8 ff ff       	callq  ffffffff80201d72 <outb>
ffffffff80203508:	48 83 c4 08          	add    $0x8,%rsp
ffffffff8020350c:	5b                   	pop    %rbx
ffffffff8020350d:	5d                   	pop    %rbp
ffffffff8020350e:	c3                   	retq   

ffffffff8020350f <key>:
ffffffff8020350f:	fb                   	sti    
ffffffff80203510:	c3                   	retq   

ffffffff80203511 <init_gdt>:
ffffffff80203511:	48 83 ec 08          	sub    $0x8,%rsp
ffffffff80203515:	66 c7 05 d2 74 01 00 	movw   $0x67,0x174d2(%rip)        # ffffffff8021a9f0 <gdt+0x30>
ffffffff8020351c:	67 00 
ffffffff8020351e:	48 8d 0d 3b 3d 00 00 	lea    0x3d3b(%rip),%rcx        # ffffffff80207260 <tss>
ffffffff80203525:	48 89 c8             	mov    %rcx,%rax
ffffffff80203528:	25 ff ff ff 00       	and    $0xffffff,%eax
ffffffff8020352d:	48 c1 e0 10          	shl    $0x10,%rax
ffffffff80203531:	48 89 c2             	mov    %rax,%rdx
ffffffff80203534:	48 b8 ff ff 00 00 00 	movabs $0xffffff000000ffff,%rax
ffffffff8020353b:	ff ff ff 
ffffffff8020353e:	48 23 05 ab 74 01 00 	and    0x174ab(%rip),%rax        # ffffffff8021a9f0 <gdt+0x30>
ffffffff80203545:	48 09 d0             	or     %rdx,%rax
ffffffff80203548:	48 89 05 a1 74 01 00 	mov    %rax,0x174a1(%rip)        # ffffffff8021a9f0 <gdt+0x30>
ffffffff8020354f:	c6 05 9f 74 01 00 89 	movb   $0x89,0x1749f(%rip)        # ffffffff8021a9f5 <gdt+0x35>
ffffffff80203556:	48 c1 e8 30          	shr    $0x30,%rax
ffffffff8020355a:	83 e0 70             	and    $0x70,%eax
ffffffff8020355d:	88 05 93 74 01 00    	mov    %al,0x17493(%rip)        # ffffffff8021a9f6 <gdt+0x36>
ffffffff80203563:	48 89 c8             	mov    %rcx,%rax
ffffffff80203566:	48 c1 e8 18          	shr    $0x18,%rax
ffffffff8020356a:	88 05 87 74 01 00    	mov    %al,0x17487(%rip)        # ffffffff8021a9f7 <gdt+0x37>
ffffffff80203570:	48 c1 e9 20          	shr    $0x20,%rcx
ffffffff80203574:	89 0d 7e 74 01 00    	mov    %ecx,0x1747e(%rip)        # ffffffff8021a9f8 <gdt+0x38>
ffffffff8020357a:	ba 10 00 00 00       	mov    $0x10,%edx
ffffffff8020357f:	be 08 00 00 00       	mov    $0x8,%esi
ffffffff80203584:	48 8d 3d 35 2d 08 00 	lea    0x82d35(%rip),%rdi        # ffffffff802862c0 <_binary_tarfs_end>
ffffffff8020358b:	e8 e6 09 00 00       	callq  ffffffff80203f76 <_x86_64_asm_lgdt>
ffffffff80203590:	bf 30 00 00 00       	mov    $0x30,%edi
ffffffff80203595:	e8 fe 09 00 00       	callq  ffffffff80203f98 <_x86_64_asm_ltr>
ffffffff8020359a:	48 83 c4 08          	add    $0x8,%rsp
ffffffff8020359e:	c3                   	retq   

ffffffff8020359f <set_tss_rsp>:
ffffffff8020359f:	48 89 3d be 3c 00 00 	mov    %rdi,0x3cbe(%rip)        # ffffffff80207264 <tss+0x4>
ffffffff802035a6:	c3                   	retq   

ffffffff802035a7 <flush_tss>:
ffffffff802035a7:	48 83 ec 10          	sub    $0x10,%rsp
ffffffff802035ab:	48 8d 44 24 08       	lea    0x8(%rsp),%rax
ffffffff802035b0:	48 89 c0             	mov    %rax,%rax
ffffffff802035b3:	0f 00 18             	ltr    (%rax)
ffffffff802035b6:	48 83 c4 10          	add    $0x10,%rsp
ffffffff802035ba:	c3                   	retq   

ffffffff802035bb <find_cmdslot>:
ffffffff802035bb:	8b 57 34             	mov    0x34(%rdi),%edx
ffffffff802035be:	8b 47 38             	mov    0x38(%rdi),%eax
ffffffff802035c1:	09 d0                	or     %edx,%eax
ffffffff802035c3:	89 c2                	mov    %eax,%edx
ffffffff802035c5:	a8 01                	test   $0x1,%al
ffffffff802035c7:	75 1d                	jne    ffffffff802035e6 <find_cmdslot+0x2b>
ffffffff802035c9:	eb 15                	jmp    ffffffff802035e0 <find_cmdslot+0x25>
ffffffff802035cb:	f6 c2 01             	test   $0x1,%dl
ffffffff802035ce:	74 20                	je     ffffffff802035f0 <find_cmdslot+0x35>
ffffffff802035d0:	48 d1 ea             	shr    %rdx
ffffffff802035d3:	ff c0                	inc    %eax
ffffffff802035d5:	83 f8 20             	cmp    $0x20,%eax
ffffffff802035d8:	75 f1                	jne    ffffffff802035cb <find_cmdslot+0x10>
ffffffff802035da:	b8 ff ff ff ff       	mov    $0xffffffff,%eax
ffffffff802035df:	c3                   	retq   
ffffffff802035e0:	b8 00 00 00 00       	mov    $0x0,%eax
ffffffff802035e5:	c3                   	retq   
ffffffff802035e6:	48 d1 ea             	shr    %rdx
ffffffff802035e9:	b8 01 00 00 00       	mov    $0x1,%eax
ffffffff802035ee:	eb db                	jmp    ffffffff802035cb <find_cmdslot+0x10>
ffffffff802035f0:	f3 c3                	repz retq 

ffffffff802035f2 <write_to_disk>:
ffffffff802035f2:	41 57                	push   %r15
ffffffff802035f4:	41 56                	push   %r14
ffffffff802035f6:	41 55                	push   %r13
ffffffff802035f8:	41 54                	push   %r12
ffffffff802035fa:	55                   	push   %rbp
ffffffff802035fb:	53                   	push   %rbx
ffffffff802035fc:	48 83 ec 18          	sub    $0x18,%rsp
ffffffff80203600:	48 89 fb             	mov    %rdi,%rbx
ffffffff80203603:	41 89 f7             	mov    %esi,%r15d
ffffffff80203606:	89 54 24 08          	mov    %edx,0x8(%rsp)
ffffffff8020360a:	41 89 cd             	mov    %ecx,%r13d
ffffffff8020360d:	4c 89 c5             	mov    %r8,%rbp
ffffffff80203610:	c7 47 10 ff ff ff ff 	movl   $0xffffffff,0x10(%rdi)
ffffffff80203617:	e8 9f ff ff ff       	callq  ffffffff802035bb <find_cmdslot>
ffffffff8020361c:	89 c6                	mov    %eax,%esi
ffffffff8020361e:	89 44 24 0c          	mov    %eax,0xc(%rsp)
ffffffff80203622:	b8 00 00 00 00       	mov    $0x0,%eax
ffffffff80203627:	83 fe ff             	cmp    $0xffffffff,%esi
ffffffff8020362a:	0f 84 85 01 00 00    	je     ffffffff802037b5 <write_to_disk+0x1c3>
ffffffff80203630:	48 8b 03             	mov    (%rbx),%rax
ffffffff80203633:	4c 63 f6             	movslq %esi,%r14
ffffffff80203636:	49 c1 e6 05          	shl    $0x5,%r14
ffffffff8020363a:	49 01 c6             	add    %rax,%r14
ffffffff8020363d:	41 0f b6 06          	movzbl (%r14),%eax
ffffffff80203641:	83 e0 a0             	and    $0xffffffa0,%eax
ffffffff80203644:	83 c8 05             	or     $0x5,%eax
ffffffff80203647:	41 88 06             	mov    %al,(%r14)
ffffffff8020364a:	41 8d 45 ff          	lea    -0x1(%r13),%eax
ffffffff8020364e:	c1 e8 04             	shr    $0x4,%eax
ffffffff80203651:	ff c0                	inc    %eax
ffffffff80203653:	66 41 89 46 02       	mov    %ax,0x2(%r14)
ffffffff80203658:	4d 8b 66 08          	mov    0x8(%r14),%r12
ffffffff8020365c:	0f b7 c0             	movzwl %ax,%eax
ffffffff8020365f:	c1 e0 04             	shl    $0x4,%eax
ffffffff80203662:	8d 90 f0 00 00 00    	lea    0xf0(%rax),%edx
ffffffff80203668:	be 00 00 00 00       	mov    $0x0,%esi
ffffffff8020366d:	4c 89 e7             	mov    %r12,%rdi
ffffffff80203670:	e8 5b ee ff ff       	callq  ffffffff802024d0 <memset>
ffffffff80203675:	41 0f b7 46 02       	movzwl 0x2(%r14),%eax
ffffffff8020367a:	ff c8                	dec    %eax
ffffffff8020367c:	85 c0                	test   %eax,%eax
ffffffff8020367e:	7e 46                	jle    ffffffff802036c6 <write_to_disk+0xd4>
ffffffff80203680:	b9 00 00 00 00       	mov    $0x0,%ecx
ffffffff80203685:	48 63 c1             	movslq %ecx,%rax
ffffffff80203688:	48 83 c0 08          	add    $0x8,%rax
ffffffff8020368c:	48 c1 e0 04          	shl    $0x4,%rax
ffffffff80203690:	4c 01 e0             	add    %r12,%rax
ffffffff80203693:	48 89 28             	mov    %rbp,(%rax)
ffffffff80203696:	8b 50 0c             	mov    0xc(%rax),%edx
ffffffff80203699:	81 e2 00 00 c0 ff    	and    $0xffc00000,%edx
ffffffff8020369f:	80 ce 20             	or     $0x20,%dh
ffffffff802036a2:	89 50 0c             	mov    %edx,0xc(%rax)
ffffffff802036a5:	c1 ea 18             	shr    $0x18,%edx
ffffffff802036a8:	83 ca 80             	or     $0xffffff80,%edx
ffffffff802036ab:	88 50 0f             	mov    %dl,0xf(%rax)
ffffffff802036ae:	48 81 c5 00 40 00 00 	add    $0x4000,%rbp
ffffffff802036b5:	41 83 ed 10          	sub    $0x10,%r13d
ffffffff802036b9:	ff c1                	inc    %ecx
ffffffff802036bb:	41 0f b7 46 02       	movzwl 0x2(%r14),%eax
ffffffff802036c0:	ff c8                	dec    %eax
ffffffff802036c2:	39 c8                	cmp    %ecx,%eax
ffffffff802036c4:	7f bf                	jg     ffffffff80203685 <write_to_disk+0x93>
ffffffff802036c6:	49 89 ac 24 80 00 00 	mov    %rbp,0x80(%r12)
ffffffff802036cd:	00 
ffffffff802036ce:	44 89 e8             	mov    %r13d,%eax
ffffffff802036d1:	c1 e0 09             	shl    $0x9,%eax
ffffffff802036d4:	25 ff ff 3f 00       	and    $0x3fffff,%eax
ffffffff802036d9:	41 8b 94 24 8c 00 00 	mov    0x8c(%r12),%edx
ffffffff802036e0:	00 
ffffffff802036e1:	81 e2 00 00 c0 ff    	and    $0xffc00000,%edx
ffffffff802036e7:	09 d0                	or     %edx,%eax
ffffffff802036e9:	41 89 84 24 8c 00 00 	mov    %eax,0x8c(%r12)
ffffffff802036f0:	00 
ffffffff802036f1:	c1 e8 18             	shr    $0x18,%eax
ffffffff802036f4:	83 c8 80             	or     $0xffffff80,%eax
ffffffff802036f7:	41 88 84 24 8f 00 00 	mov    %al,0x8f(%r12)
ffffffff802036fe:	00 
ffffffff802036ff:	41 c6 04 24 27       	movb   $0x27,(%r12)
ffffffff80203704:	41 80 4c 24 01 80    	orb    $0x80,0x1(%r12)
ffffffff8020370a:	41 c6 44 24 02 35    	movb   $0x35,0x2(%r12)
ffffffff80203710:	45 88 7c 24 04       	mov    %r15b,0x4(%r12)
ffffffff80203715:	44 89 f8             	mov    %r15d,%eax
ffffffff80203718:	c1 e8 08             	shr    $0x8,%eax
ffffffff8020371b:	41 88 44 24 05       	mov    %al,0x5(%r12)
ffffffff80203720:	44 89 f8             	mov    %r15d,%eax
ffffffff80203723:	c1 e8 10             	shr    $0x10,%eax
ffffffff80203726:	41 88 44 24 06       	mov    %al,0x6(%r12)
ffffffff8020372b:	41 c6 44 24 07 40    	movb   $0x40,0x7(%r12)
ffffffff80203731:	41 c1 ef 18          	shr    $0x18,%r15d
ffffffff80203735:	45 88 7c 24 08       	mov    %r15b,0x8(%r12)
ffffffff8020373a:	8b 44 24 08          	mov    0x8(%rsp),%eax
ffffffff8020373e:	41 88 44 24 09       	mov    %al,0x9(%r12)
ffffffff80203743:	c1 e8 08             	shr    $0x8,%eax
ffffffff80203746:	41 88 44 24 0a       	mov    %al,0xa(%r12)
ffffffff8020374b:	45 0f b6 ed          	movzbl %r13b,%r13d
ffffffff8020374f:	66 45 89 6c 24 0c    	mov    %r13w,0xc(%r12)
ffffffff80203755:	8b 43 20             	mov    0x20(%rbx),%eax
ffffffff80203758:	a8 88                	test   $0x88,%al
ffffffff8020375a:	74 1d                	je     ffffffff80203779 <write_to_disk+0x187>
ffffffff8020375c:	b8 00 00 00 00       	mov    $0x0,%eax
ffffffff80203761:	ff c0                	inc    %eax
ffffffff80203763:	8b 53 20             	mov    0x20(%rbx),%edx
ffffffff80203766:	f6 c2 88             	test   $0x88,%dl
ffffffff80203769:	74 07                	je     ffffffff80203772 <write_to_disk+0x180>
ffffffff8020376b:	3d 3f 42 0f 00       	cmp    $0xf423f,%eax
ffffffff80203770:	7e ef                	jle    ffffffff80203761 <write_to_disk+0x16f>
ffffffff80203772:	3d 40 42 0f 00       	cmp    $0xf4240,%eax
ffffffff80203777:	74 30                	je     ffffffff802037a9 <write_to_disk+0x1b7>
ffffffff80203779:	ba 01 00 00 00       	mov    $0x1,%edx
ffffffff8020377e:	0f b6 4c 24 0c       	movzbl 0xc(%rsp),%ecx
ffffffff80203783:	d3 e2                	shl    %cl,%edx
ffffffff80203785:	89 53 38             	mov    %edx,0x38(%rbx)
ffffffff80203788:	8b 43 38             	mov    0x38(%rbx),%eax
ffffffff8020378b:	85 c2                	test   %eax,%edx
ffffffff8020378d:	74 0c                	je     ffffffff8020379b <write_to_disk+0x1a9>
ffffffff8020378f:	8b 43 10             	mov    0x10(%rbx),%eax
ffffffff80203792:	a9 00 00 00 40       	test   $0x40000000,%eax
ffffffff80203797:	74 ef                	je     ffffffff80203788 <write_to_disk+0x196>
ffffffff80203799:	eb 15                	jmp    ffffffff802037b0 <write_to_disk+0x1be>
ffffffff8020379b:	8b 43 10             	mov    0x10(%rbx),%eax
ffffffff8020379e:	c1 e8 1e             	shr    $0x1e,%eax
ffffffff802037a1:	83 f0 01             	xor    $0x1,%eax
ffffffff802037a4:	83 e0 01             	and    $0x1,%eax
ffffffff802037a7:	eb 0c                	jmp    ffffffff802037b5 <write_to_disk+0x1c3>
ffffffff802037a9:	b8 00 00 00 00       	mov    $0x0,%eax
ffffffff802037ae:	eb 05                	jmp    ffffffff802037b5 <write_to_disk+0x1c3>
ffffffff802037b0:	b8 00 00 00 00       	mov    $0x0,%eax
ffffffff802037b5:	48 83 c4 18          	add    $0x18,%rsp
ffffffff802037b9:	5b                   	pop    %rbx
ffffffff802037ba:	5d                   	pop    %rbp
ffffffff802037bb:	41 5c                	pop    %r12
ffffffff802037bd:	41 5d                	pop    %r13
ffffffff802037bf:	41 5e                	pop    %r14
ffffffff802037c1:	41 5f                	pop    %r15
ffffffff802037c3:	c3                   	retq   

ffffffff802037c4 <read_from_disk>:
ffffffff802037c4:	41 57                	push   %r15
ffffffff802037c6:	41 56                	push   %r14
ffffffff802037c8:	41 55                	push   %r13
ffffffff802037ca:	41 54                	push   %r12
ffffffff802037cc:	55                   	push   %rbp
ffffffff802037cd:	53                   	push   %rbx
ffffffff802037ce:	48 83 ec 18          	sub    $0x18,%rsp
ffffffff802037d2:	48 89 fb             	mov    %rdi,%rbx
ffffffff802037d5:	41 89 f7             	mov    %esi,%r15d
ffffffff802037d8:	89 54 24 08          	mov    %edx,0x8(%rsp)
ffffffff802037dc:	41 89 cd             	mov    %ecx,%r13d
ffffffff802037df:	4c 89 c5             	mov    %r8,%rbp
ffffffff802037e2:	c7 47 10 ff ff ff ff 	movl   $0xffffffff,0x10(%rdi)
ffffffff802037e9:	e8 cd fd ff ff       	callq  ffffffff802035bb <find_cmdslot>
ffffffff802037ee:	89 c6                	mov    %eax,%esi
ffffffff802037f0:	89 44 24 0c          	mov    %eax,0xc(%rsp)
ffffffff802037f4:	b8 00 00 00 00       	mov    $0x0,%eax
ffffffff802037f9:	83 fe ff             	cmp    $0xffffffff,%esi
ffffffff802037fc:	0f 84 bf 01 00 00    	je     ffffffff802039c1 <read_from_disk+0x1fd>
ffffffff80203802:	48 8b 03             	mov    (%rbx),%rax
ffffffff80203805:	4c 63 f6             	movslq %esi,%r14
ffffffff80203808:	49 c1 e6 05          	shl    $0x5,%r14
ffffffff8020380c:	49 01 c6             	add    %rax,%r14
ffffffff8020380f:	41 0f b6 06          	movzbl (%r14),%eax
ffffffff80203813:	83 e0 a0             	and    $0xffffffa0,%eax
ffffffff80203816:	83 c8 05             	or     $0x5,%eax
ffffffff80203819:	41 88 06             	mov    %al,(%r14)
ffffffff8020381c:	41 8d 45 ff          	lea    -0x1(%r13),%eax
ffffffff80203820:	c1 e8 04             	shr    $0x4,%eax
ffffffff80203823:	ff c0                	inc    %eax
ffffffff80203825:	66 41 89 46 02       	mov    %ax,0x2(%r14)
ffffffff8020382a:	4d 8b 66 08          	mov    0x8(%r14),%r12
ffffffff8020382e:	0f b7 c0             	movzwl %ax,%eax
ffffffff80203831:	c1 e0 04             	shl    $0x4,%eax
ffffffff80203834:	8d 90 f0 00 00 00    	lea    0xf0(%rax),%edx
ffffffff8020383a:	be 00 00 00 00       	mov    $0x0,%esi
ffffffff8020383f:	4c 89 e7             	mov    %r12,%rdi
ffffffff80203842:	e8 89 ec ff ff       	callq  ffffffff802024d0 <memset>
ffffffff80203847:	41 0f b7 46 02       	movzwl 0x2(%r14),%eax
ffffffff8020384c:	ff c8                	dec    %eax
ffffffff8020384e:	85 c0                	test   %eax,%eax
ffffffff80203850:	7e 46                	jle    ffffffff80203898 <read_from_disk+0xd4>
ffffffff80203852:	b9 00 00 00 00       	mov    $0x0,%ecx
ffffffff80203857:	48 63 c1             	movslq %ecx,%rax
ffffffff8020385a:	48 83 c0 08          	add    $0x8,%rax
ffffffff8020385e:	48 c1 e0 04          	shl    $0x4,%rax
ffffffff80203862:	4c 01 e0             	add    %r12,%rax
ffffffff80203865:	48 89 28             	mov    %rbp,(%rax)
ffffffff80203868:	8b 50 0c             	mov    0xc(%rax),%edx
ffffffff8020386b:	81 e2 00 00 c0 ff    	and    $0xffc00000,%edx
ffffffff80203871:	80 ce 20             	or     $0x20,%dh
ffffffff80203874:	89 50 0c             	mov    %edx,0xc(%rax)
ffffffff80203877:	c1 ea 18             	shr    $0x18,%edx
ffffffff8020387a:	83 ca 80             	or     $0xffffff80,%edx
ffffffff8020387d:	88 50 0f             	mov    %dl,0xf(%rax)
ffffffff80203880:	48 81 c5 00 40 00 00 	add    $0x4000,%rbp
ffffffff80203887:	41 83 ed 10          	sub    $0x10,%r13d
ffffffff8020388b:	ff c1                	inc    %ecx
ffffffff8020388d:	41 0f b7 46 02       	movzwl 0x2(%r14),%eax
ffffffff80203892:	ff c8                	dec    %eax
ffffffff80203894:	39 c8                	cmp    %ecx,%eax
ffffffff80203896:	7f bf                	jg     ffffffff80203857 <read_from_disk+0x93>
ffffffff80203898:	49 89 ac 24 80 00 00 	mov    %rbp,0x80(%r12)
ffffffff8020389f:	00 
ffffffff802038a0:	44 89 e8             	mov    %r13d,%eax
ffffffff802038a3:	c1 e0 09             	shl    $0x9,%eax
ffffffff802038a6:	25 ff ff 3f 00       	and    $0x3fffff,%eax
ffffffff802038ab:	41 8b 94 24 8c 00 00 	mov    0x8c(%r12),%edx
ffffffff802038b2:	00 
ffffffff802038b3:	81 e2 00 00 c0 ff    	and    $0xffc00000,%edx
ffffffff802038b9:	09 d0                	or     %edx,%eax
ffffffff802038bb:	41 89 84 24 8c 00 00 	mov    %eax,0x8c(%r12)
ffffffff802038c2:	00 
ffffffff802038c3:	c1 e8 18             	shr    $0x18,%eax
ffffffff802038c6:	83 c8 80             	or     $0xffffff80,%eax
ffffffff802038c9:	41 88 84 24 8f 00 00 	mov    %al,0x8f(%r12)
ffffffff802038d0:	00 
ffffffff802038d1:	41 c6 04 24 27       	movb   $0x27,(%r12)
ffffffff802038d6:	41 80 4c 24 01 80    	orb    $0x80,0x1(%r12)
ffffffff802038dc:	41 c6 44 24 02 25    	movb   $0x25,0x2(%r12)
ffffffff802038e2:	45 88 7c 24 04       	mov    %r15b,0x4(%r12)
ffffffff802038e7:	44 89 f8             	mov    %r15d,%eax
ffffffff802038ea:	c1 e8 08             	shr    $0x8,%eax
ffffffff802038ed:	41 88 44 24 05       	mov    %al,0x5(%r12)
ffffffff802038f2:	44 89 f8             	mov    %r15d,%eax
ffffffff802038f5:	c1 e8 10             	shr    $0x10,%eax
ffffffff802038f8:	41 88 44 24 06       	mov    %al,0x6(%r12)
ffffffff802038fd:	41 c6 44 24 07 40    	movb   $0x40,0x7(%r12)
ffffffff80203903:	41 c1 ef 18          	shr    $0x18,%r15d
ffffffff80203907:	45 88 7c 24 08       	mov    %r15b,0x8(%r12)
ffffffff8020390c:	8b 44 24 08          	mov    0x8(%rsp),%eax
ffffffff80203910:	41 88 44 24 09       	mov    %al,0x9(%r12)
ffffffff80203915:	c1 e8 08             	shr    $0x8,%eax
ffffffff80203918:	41 88 44 24 0a       	mov    %al,0xa(%r12)
ffffffff8020391d:	45 0f b6 ed          	movzbl %r13b,%r13d
ffffffff80203921:	66 45 89 6c 24 0c    	mov    %r13w,0xc(%r12)
ffffffff80203927:	8b 43 20             	mov    0x20(%rbx),%eax
ffffffff8020392a:	a8 88                	test   $0x88,%al
ffffffff8020392c:	74 35                	je     ffffffff80203963 <read_from_disk+0x19f>
ffffffff8020392e:	b8 00 00 00 00       	mov    $0x0,%eax
ffffffff80203933:	ff c0                	inc    %eax
ffffffff80203935:	8b 53 20             	mov    0x20(%rbx),%edx
ffffffff80203938:	f6 c2 88             	test   $0x88,%dl
ffffffff8020393b:	74 07                	je     ffffffff80203944 <read_from_disk+0x180>
ffffffff8020393d:	3d 3f 42 0f 00       	cmp    $0xf423f,%eax
ffffffff80203942:	7e ef                	jle    ffffffff80203933 <read_from_disk+0x16f>
ffffffff80203944:	3d 40 42 0f 00       	cmp    $0xf4240,%eax
ffffffff80203949:	75 18                	jne    ffffffff80203963 <read_from_disk+0x19f>
ffffffff8020394b:	48 8d 3d 58 07 00 00 	lea    0x758(%rip),%rdi        # ffffffff802040aa <_x86_64_asm_ltr+0x112>
ffffffff80203952:	b8 00 00 00 00       	mov    $0x0,%eax
ffffffff80203957:	e8 b4 e8 ff ff       	callq  ffffffff80202210 <kprintf>
ffffffff8020395c:	b8 00 00 00 00       	mov    $0x0,%eax
ffffffff80203961:	eb 5e                	jmp    ffffffff802039c1 <read_from_disk+0x1fd>
ffffffff80203963:	ba 01 00 00 00       	mov    $0x1,%edx
ffffffff80203968:	0f b6 4c 24 0c       	movzbl 0xc(%rsp),%ecx
ffffffff8020396d:	d3 e2                	shl    %cl,%edx
ffffffff8020396f:	89 53 38             	mov    %edx,0x38(%rbx)
ffffffff80203972:	8b 43 38             	mov    0x38(%rbx),%eax
ffffffff80203975:	85 c2                	test   %eax,%edx
ffffffff80203977:	74 22                	je     ffffffff8020399b <read_from_disk+0x1d7>
ffffffff80203979:	8b 43 10             	mov    0x10(%rbx),%eax
ffffffff8020397c:	a9 00 00 00 40       	test   $0x40000000,%eax
ffffffff80203981:	74 ef                	je     ffffffff80203972 <read_from_disk+0x1ae>
ffffffff80203983:	48 8d 3d 2e 07 00 00 	lea    0x72e(%rip),%rdi        # ffffffff802040b8 <_x86_64_asm_ltr+0x120>
ffffffff8020398a:	b8 00 00 00 00       	mov    $0x0,%eax
ffffffff8020398f:	e8 7c e8 ff ff       	callq  ffffffff80202210 <kprintf>
ffffffff80203994:	b8 00 00 00 00       	mov    $0x0,%eax
ffffffff80203999:	eb 26                	jmp    ffffffff802039c1 <read_from_disk+0x1fd>
ffffffff8020399b:	8b 53 10             	mov    0x10(%rbx),%edx
ffffffff8020399e:	b8 01 00 00 00       	mov    $0x1,%eax
ffffffff802039a3:	f7 c2 00 00 00 40    	test   $0x40000000,%edx
ffffffff802039a9:	74 16                	je     ffffffff802039c1 <read_from_disk+0x1fd>
ffffffff802039ab:	48 8d 3d 06 07 00 00 	lea    0x706(%rip),%rdi        # ffffffff802040b8 <_x86_64_asm_ltr+0x120>
ffffffff802039b2:	b8 00 00 00 00       	mov    $0x0,%eax
ffffffff802039b7:	e8 54 e8 ff ff       	callq  ffffffff80202210 <kprintf>
ffffffff802039bc:	b8 00 00 00 00       	mov    $0x0,%eax
ffffffff802039c1:	48 83 c4 18          	add    $0x18,%rsp
ffffffff802039c5:	5b                   	pop    %rbx
ffffffff802039c6:	5d                   	pop    %rbp
ffffffff802039c7:	41 5c                	pop    %r12
ffffffff802039c9:	41 5d                	pop    %r13
ffffffff802039cb:	41 5e                	pop    %r14
ffffffff802039cd:	41 5f                	pop    %r15
ffffffff802039cf:	c3                   	retq   

ffffffff802039d0 <start_cmd>:
ffffffff802039d0:	8b 47 18             	mov    0x18(%rdi),%eax
ffffffff802039d3:	f6 c4 80             	test   $0x80,%ah
ffffffff802039d6:	75 f8                	jne    ffffffff802039d0 <start_cmd>
ffffffff802039d8:	8b 47 18             	mov    0x18(%rdi),%eax
ffffffff802039db:	83 c8 10             	or     $0x10,%eax
ffffffff802039de:	89 47 18             	mov    %eax,0x18(%rdi)
ffffffff802039e1:	8b 47 18             	mov    0x18(%rdi),%eax
ffffffff802039e4:	83 c8 01             	or     $0x1,%eax
ffffffff802039e7:	89 47 18             	mov    %eax,0x18(%rdi)
ffffffff802039ea:	c3                   	retq   

ffffffff802039eb <stop_cmd>:
ffffffff802039eb:	8b 47 18             	mov    0x18(%rdi),%eax
ffffffff802039ee:	83 e0 fe             	and    $0xfffffffe,%eax
ffffffff802039f1:	89 47 18             	mov    %eax,0x18(%rdi)
ffffffff802039f4:	8b 47 18             	mov    0x18(%rdi),%eax
ffffffff802039f7:	83 e0 ef             	and    $0xffffffef,%eax
ffffffff802039fa:	89 47 18             	mov    %eax,0x18(%rdi)
ffffffff802039fd:	8b 47 18             	mov    0x18(%rdi),%eax
ffffffff80203a00:	f6 c4 40             	test   $0x40,%ah
ffffffff80203a03:	75 f8                	jne    ffffffff802039fd <stop_cmd+0x12>
ffffffff80203a05:	8b 47 18             	mov    0x18(%rdi),%eax
ffffffff80203a08:	f6 c4 80             	test   $0x80,%ah
ffffffff80203a0b:	75 f0                	jne    ffffffff802039fd <stop_cmd+0x12>
ffffffff80203a0d:	8b 47 18             	mov    0x18(%rdi),%eax
ffffffff80203a10:	83 e0 ef             	and    $0xffffffef,%eax
ffffffff80203a13:	89 47 18             	mov    %eax,0x18(%rdi)
ffffffff80203a16:	c3                   	retq   

ffffffff80203a17 <port_rebase>:
ffffffff80203a17:	41 55                	push   %r13
ffffffff80203a19:	41 54                	push   %r12
ffffffff80203a1b:	55                   	push   %rbp
ffffffff80203a1c:	53                   	push   %rbx
ffffffff80203a1d:	48 83 ec 08          	sub    $0x8,%rsp
ffffffff80203a21:	49 89 fd             	mov    %rdi,%r13
ffffffff80203a24:	41 89 f4             	mov    %esi,%r12d
ffffffff80203a27:	e8 bf ff ff ff       	callq  ffffffff802039eb <stop_cmd>
ffffffff80203a2c:	44 89 e0             	mov    %r12d,%eax
ffffffff80203a2f:	c1 e0 0a             	shl    $0xa,%eax
ffffffff80203a32:	05 00 00 40 00       	add    $0x400000,%eax
ffffffff80203a37:	48 98                	cltq   
ffffffff80203a39:	49 89 45 00          	mov    %rax,0x0(%r13)
ffffffff80203a3d:	49 8b 7d 00          	mov    0x0(%r13),%rdi
ffffffff80203a41:	ba 00 04 00 00       	mov    $0x400,%edx
ffffffff80203a46:	be 00 00 00 00       	mov    $0x0,%esi
ffffffff80203a4b:	e8 80 ea ff ff       	callq  ffffffff802024d0 <memset>
ffffffff80203a50:	44 89 e0             	mov    %r12d,%eax
ffffffff80203a53:	c1 e0 08             	shl    $0x8,%eax
ffffffff80203a56:	05 00 80 40 00       	add    $0x408000,%eax
ffffffff80203a5b:	48 98                	cltq   
ffffffff80203a5d:	49 89 45 08          	mov    %rax,0x8(%r13)
ffffffff80203a61:	49 8b 7d 08          	mov    0x8(%r13),%rdi
ffffffff80203a65:	ba 00 01 00 00       	mov    $0x100,%edx
ffffffff80203a6a:	be 00 00 00 00       	mov    $0x0,%esi
ffffffff80203a6f:	e8 5c ea ff ff       	callq  ffffffff802024d0 <memset>
ffffffff80203a74:	49 8b 5d 00          	mov    0x0(%r13),%rbx
ffffffff80203a78:	41 c1 e4 0d          	shl    $0xd,%r12d
ffffffff80203a7c:	41 81 c4 00 a0 40 00 	add    $0x40a000,%r12d
ffffffff80203a83:	48 83 c3 02          	add    $0x2,%rbx
ffffffff80203a87:	bd 00 00 00 00       	mov    $0x0,%ebp
ffffffff80203a8c:	66 c7 03 08 00       	movw   $0x8,(%rbx)
ffffffff80203a91:	89 ef                	mov    %ebp,%edi
ffffffff80203a93:	c1 e7 08             	shl    $0x8,%edi
ffffffff80203a96:	44 01 e7             	add    %r12d,%edi
ffffffff80203a99:	48 63 ff             	movslq %edi,%rdi
ffffffff80203a9c:	48 89 7b 06          	mov    %rdi,0x6(%rbx)
ffffffff80203aa0:	ba 00 01 00 00       	mov    $0x100,%edx
ffffffff80203aa5:	be 00 00 00 00       	mov    $0x0,%esi
ffffffff80203aaa:	e8 21 ea ff ff       	callq  ffffffff802024d0 <memset>
ffffffff80203aaf:	ff c5                	inc    %ebp
ffffffff80203ab1:	48 83 c3 20          	add    $0x20,%rbx
ffffffff80203ab5:	83 fd 20             	cmp    $0x20,%ebp
ffffffff80203ab8:	75 d2                	jne    ffffffff80203a8c <port_rebase+0x75>
ffffffff80203aba:	4c 89 ef             	mov    %r13,%rdi
ffffffff80203abd:	e8 0e ff ff ff       	callq  ffffffff802039d0 <start_cmd>
ffffffff80203ac2:	48 83 c4 08          	add    $0x8,%rsp
ffffffff80203ac6:	5b                   	pop    %rbx
ffffffff80203ac7:	5d                   	pop    %rbp
ffffffff80203ac8:	41 5c                	pop    %r12
ffffffff80203aca:	41 5d                	pop    %r13
ffffffff80203acc:	c3                   	retq   

ffffffff80203acd <read>:
ffffffff80203acd:	53                   	push   %rbx
ffffffff80203ace:	89 c8                	mov    %ecx,%eax
ffffffff80203ad0:	25 fc 00 00 00       	and    $0xfc,%eax
ffffffff80203ad5:	0d 00 00 00 80       	or     $0x80000000,%eax
ffffffff80203ada:	0f b6 d2             	movzbl %dl,%edx
ffffffff80203add:	c1 e2 08             	shl    $0x8,%edx
ffffffff80203ae0:	09 c2                	or     %eax,%edx
ffffffff80203ae2:	40 0f b6 f6          	movzbl %sil,%esi
ffffffff80203ae6:	c1 e6 0b             	shl    $0xb,%esi
ffffffff80203ae9:	09 d6                	or     %edx,%esi
ffffffff80203aeb:	40 0f b6 ff          	movzbl %dil,%edi
ffffffff80203aef:	c1 e7 10             	shl    $0x10,%edi
ffffffff80203af2:	09 fe                	or     %edi,%esi
ffffffff80203af4:	80 f9 24             	cmp    $0x24,%cl
ffffffff80203af7:	75 25                	jne    ffffffff80203b1e <read+0x51>
ffffffff80203af9:	bf f8 0c 00 00       	mov    $0xcf8,%edi
ffffffff80203afe:	e8 79 e2 ff ff       	callq  ffffffff80201d7c <outl>
ffffffff80203b03:	be 00 10 bf 3e       	mov    $0x3ebf1000,%esi
ffffffff80203b08:	bf fc 0c 00 00       	mov    $0xcfc,%edi
ffffffff80203b0d:	e8 6a e2 ff ff       	callq  ffffffff80201d7c <outl>
ffffffff80203b12:	bf fc 0c 00 00       	mov    $0xcfc,%edi
ffffffff80203b17:	e8 66 e2 ff ff       	callq  ffffffff80201d82 <inl>
ffffffff80203b1c:	eb 21                	jmp    ffffffff80203b3f <read+0x72>
ffffffff80203b1e:	89 cb                	mov    %ecx,%ebx
ffffffff80203b20:	bf f8 0c 00 00       	mov    $0xcf8,%edi
ffffffff80203b25:	e8 52 e2 ff ff       	callq  ffffffff80201d7c <outl>
ffffffff80203b2a:	bf fc 0c 00 00       	mov    $0xcfc,%edi
ffffffff80203b2f:	e8 4e e2 ff ff       	callq  ffffffff80201d82 <inl>
ffffffff80203b34:	83 e3 02             	and    $0x2,%ebx
ffffffff80203b37:	0f b6 cb             	movzbl %bl,%ecx
ffffffff80203b3a:	c1 e1 03             	shl    $0x3,%ecx
ffffffff80203b3d:	d3 e8                	shr    %cl,%eax
ffffffff80203b3f:	5b                   	pop    %rbx
ffffffff80203b40:	c3                   	retq   

ffffffff80203b41 <check>:
ffffffff80203b41:	8b 47 24             	mov    0x24(%rdi),%eax
ffffffff80203b44:	3d 01 01 14 eb       	cmp    $0xeb140101,%eax
ffffffff80203b49:	74 32                	je     ffffffff80203b7d <check+0x3c>
ffffffff80203b4b:	8b 57 24             	mov    0x24(%rdi),%edx
ffffffff80203b4e:	b8 02 00 00 00       	mov    $0x2,%eax
ffffffff80203b53:	81 fa 01 01 3c c3    	cmp    $0xc33c0101,%edx
ffffffff80203b59:	74 27                	je     ffffffff80203b82 <check+0x41>
ffffffff80203b5b:	8b 57 24             	mov    0x24(%rdi),%edx
ffffffff80203b5e:	b8 03 00 00 00       	mov    $0x3,%eax
ffffffff80203b63:	81 fa 01 01 69 96    	cmp    $0x96690101,%edx
ffffffff80203b69:	74 17                	je     ffffffff80203b82 <check+0x41>
ffffffff80203b6b:	8b 47 24             	mov    0x24(%rdi),%eax
ffffffff80203b6e:	3d 01 01 00 00       	cmp    $0x101,%eax
ffffffff80203b73:	0f 94 c0             	sete   %al
ffffffff80203b76:	0f b6 c0             	movzbl %al,%eax
ffffffff80203b79:	c1 e0 02             	shl    $0x2,%eax
ffffffff80203b7c:	c3                   	retq   
ffffffff80203b7d:	b8 01 00 00 00       	mov    $0x1,%eax
ffffffff80203b82:	f3 c3                	repz retq 

ffffffff80203b84 <probeport>:
ffffffff80203b84:	41 57                	push   %r15
ffffffff80203b86:	41 56                	push   %r14
ffffffff80203b88:	41 55                	push   %r13
ffffffff80203b8a:	41 54                	push   %r12
ffffffff80203b8c:	55                   	push   %rbp
ffffffff80203b8d:	53                   	push   %rbx
ffffffff80203b8e:	48 83 ec 18          	sub    $0x18,%rsp
ffffffff80203b92:	49 89 ff             	mov    %rdi,%r15
ffffffff80203b95:	8b 6f 0c             	mov    0xc(%rdi),%ebp
ffffffff80203b98:	41 bc 01 00 00 00    	mov    $0x1,%r12d
ffffffff80203b9e:	bb 00 00 00 00       	mov    $0x0,%ebx
ffffffff80203ba3:	eb 05                	jmp    ffffffff80203baa <probeport+0x26>
ffffffff80203ba5:	ff c3                	inc    %ebx
ffffffff80203ba7:	41 ff c4             	inc    %r12d
ffffffff80203baa:	41 89 de             	mov    %ebx,%r14d
ffffffff80203bad:	40 f6 c5 01          	test   $0x1,%bpl
ffffffff80203bb1:	0f 84 b6 01 00 00    	je     ffffffff80203d6d <probeport+0x1e9>
ffffffff80203bb7:	4c 63 eb             	movslq %ebx,%r13
ffffffff80203bba:	49 83 c5 02          	add    $0x2,%r13
ffffffff80203bbe:	49 c1 e5 07          	shl    $0x7,%r13
ffffffff80203bc2:	4d 01 fd             	add    %r15,%r13
ffffffff80203bc5:	4c 89 ef             	mov    %r13,%rdi
ffffffff80203bc8:	e8 74 ff ff ff       	callq  ffffffff80203b41 <check>
ffffffff80203bcd:	83 f8 04             	cmp    $0x4,%eax
ffffffff80203bd0:	0f 85 36 01 00 00    	jne    ffffffff80203d0c <probeport+0x188>
ffffffff80203bd6:	89 de                	mov    %ebx,%esi
ffffffff80203bd8:	48 8d 3d ea 04 00 00 	lea    0x4ea(%rip),%rdi        # ffffffff802040c9 <_x86_64_asm_ltr+0x131>
ffffffff80203bdf:	b8 00 00 00 00       	mov    $0x0,%eax
ffffffff80203be4:	e8 27 e6 ff ff       	callq  ffffffff80202210 <kprintf>
ffffffff80203be9:	83 fb 01             	cmp    $0x1,%ebx
ffffffff80203bec:	0f 85 7b 01 00 00    	jne    ffffffff80203d6d <probeport+0x1e9>
ffffffff80203bf2:	41 c7 47 04 02 00 00 	movl   $0x2,0x4(%r15)
ffffffff80203bf9:	00 
ffffffff80203bfa:	be 01 00 00 00       	mov    $0x1,%esi
ffffffff80203bff:	4c 89 ef             	mov    %r13,%rdi
ffffffff80203c02:	e8 10 fe ff ff       	callq  ffffffff80203a17 <port_rebase>
ffffffff80203c07:	c7 44 24 0c 00 00 00 	movl   $0x0,0xc(%rsp)
ffffffff80203c0e:	00 
ffffffff80203c0f:	eb 5a                	jmp    ffffffff80203c6b <probeport+0xe7>
ffffffff80203c11:	44 88 30             	mov    %r14b,(%rax)
ffffffff80203c14:	48 ff c0             	inc    %rax
ffffffff80203c17:	48 3d 00 02 30 00    	cmp    $0x300200,%rax
ffffffff80203c1d:	75 f2                	jne    ffffffff80203c11 <probeport+0x8d>
ffffffff80203c1f:	42 8d 04 f5 00 00 00 	lea    0x0(,%r14,8),%eax
ffffffff80203c26:	00 
ffffffff80203c27:	89 44 24 08          	mov    %eax,0x8(%rsp)
ffffffff80203c2b:	8b 44 24 0c          	mov    0xc(%rsp),%eax
ffffffff80203c2f:	89 44 24 04          	mov    %eax,0x4(%rsp)
ffffffff80203c33:	41 b8 00 00 30 00    	mov    $0x300000,%r8d
ffffffff80203c39:	b9 01 00 00 00       	mov    $0x1,%ecx
ffffffff80203c3e:	ba 00 00 00 00       	mov    $0x0,%edx
ffffffff80203c43:	8b 74 24 04          	mov    0x4(%rsp),%esi
ffffffff80203c47:	4c 89 ef             	mov    %r13,%rdi
ffffffff80203c4a:	e8 a3 f9 ff ff       	callq  ffffffff802035f2 <write_to_disk>
ffffffff80203c4f:	ff 44 24 04          	incl   0x4(%rsp)
ffffffff80203c53:	8b 44 24 04          	mov    0x4(%rsp),%eax
ffffffff80203c57:	3b 44 24 08          	cmp    0x8(%rsp),%eax
ffffffff80203c5b:	75 d6                	jne    ffffffff80203c33 <probeport+0xaf>
ffffffff80203c5d:	41 ff c6             	inc    %r14d
ffffffff80203c60:	83 44 24 0c 08       	addl   $0x8,0xc(%rsp)
ffffffff80203c65:	41 83 fe 65          	cmp    $0x65,%r14d
ffffffff80203c69:	74 07                	je     ffffffff80203c72 <probeport+0xee>
ffffffff80203c6b:	b8 00 00 30 00       	mov    $0x300000,%eax
ffffffff80203c70:	eb 9f                	jmp    ffffffff80203c11 <probeport+0x8d>
ffffffff80203c72:	be 01 00 00 00       	mov    $0x1,%esi
ffffffff80203c77:	48 8d 3d 68 04 00 00 	lea    0x468(%rip),%rdi        # ffffffff802040e6 <_x86_64_asm_ltr+0x14e>
ffffffff80203c7e:	b8 00 00 00 00       	mov    $0x0,%eax
ffffffff80203c83:	e8 88 e5 ff ff       	callq  ffffffff80202210 <kprintf>
ffffffff80203c88:	41 b8 00 00 40 00    	mov    $0x400000,%r8d
ffffffff80203c8e:	b9 01 00 00 00       	mov    $0x1,%ecx
ffffffff80203c93:	ba 00 00 00 00       	mov    $0x0,%edx
ffffffff80203c98:	be 14 00 00 00       	mov    $0x14,%esi
ffffffff80203c9d:	4c 89 ef             	mov    %r13,%rdi
ffffffff80203ca0:	e8 1f fb ff ff       	callq  ffffffff802037c4 <read_from_disk>
ffffffff80203ca5:	8b 34 25 00 00 40 00 	mov    0x400000,%esi
ffffffff80203cac:	48 8d 3d 50 04 00 00 	lea    0x450(%rip),%rdi        # ffffffff80204103 <_x86_64_asm_ltr+0x16b>
ffffffff80203cb3:	b8 00 00 00 00       	mov    $0x0,%eax
ffffffff80203cb8:	e8 53 e5 ff ff       	callq  ffffffff80202210 <kprintf>
ffffffff80203cbd:	8b 34 25 10 00 40 00 	mov    0x400010,%esi
ffffffff80203cc4:	48 8d 3d 38 04 00 00 	lea    0x438(%rip),%rdi        # ffffffff80204103 <_x86_64_asm_ltr+0x16b>
ffffffff80203ccb:	b8 00 00 00 00       	mov    $0x0,%eax
ffffffff80203cd0:	e8 3b e5 ff ff       	callq  ffffffff80202210 <kprintf>
ffffffff80203cd5:	8b 34 25 20 00 40 00 	mov    0x400020,%esi
ffffffff80203cdc:	48 8d 3d 20 04 00 00 	lea    0x420(%rip),%rdi        # ffffffff80204103 <_x86_64_asm_ltr+0x16b>
ffffffff80203ce3:	b8 00 00 00 00       	mov    $0x0,%eax
ffffffff80203ce8:	e8 23 e5 ff ff       	callq  ffffffff80202210 <kprintf>
ffffffff80203ced:	8b 34 25 30 00 40 00 	mov    0x400030,%esi
ffffffff80203cf4:	48 8d 3d 08 04 00 00 	lea    0x408(%rip),%rdi        # ffffffff80204103 <_x86_64_asm_ltr+0x16b>
ffffffff80203cfb:	b8 00 00 00 00       	mov    $0x0,%eax
ffffffff80203d00:	e8 0b e5 ff ff       	callq  ffffffff80202210 <kprintf>
ffffffff80203d05:	d1 ed                	shr    %ebp
ffffffff80203d07:	e9 99 fe ff ff       	jmpq   ffffffff80203ba5 <probeport+0x21>
ffffffff80203d0c:	83 f8 01             	cmp    $0x1,%eax
ffffffff80203d0f:	75 15                	jne    ffffffff80203d26 <probeport+0x1a2>
ffffffff80203d11:	89 de                	mov    %ebx,%esi
ffffffff80203d13:	48 8d 3d f6 05 00 00 	lea    0x5f6(%rip),%rdi        # ffffffff80204310 <_x86_64_asm_ltr+0x378>
ffffffff80203d1a:	b8 00 00 00 00       	mov    $0x0,%eax
ffffffff80203d1f:	e8 ec e4 ff ff       	callq  ffffffff80202210 <kprintf>
ffffffff80203d24:	eb 47                	jmp    ffffffff80203d6d <probeport+0x1e9>
ffffffff80203d26:	83 f8 02             	cmp    $0x2,%eax
ffffffff80203d29:	75 15                	jne    ffffffff80203d40 <probeport+0x1bc>
ffffffff80203d2b:	89 de                	mov    %ebx,%esi
ffffffff80203d2d:	48 8d 3d d4 03 00 00 	lea    0x3d4(%rip),%rdi        # ffffffff80204108 <_x86_64_asm_ltr+0x170>
ffffffff80203d34:	b8 00 00 00 00       	mov    $0x0,%eax
ffffffff80203d39:	e8 d2 e4 ff ff       	callq  ffffffff80202210 <kprintf>
ffffffff80203d3e:	eb 2d                	jmp    ffffffff80203d6d <probeport+0x1e9>
ffffffff80203d40:	83 f8 03             	cmp    $0x3,%eax
ffffffff80203d43:	75 15                	jne    ffffffff80203d5a <probeport+0x1d6>
ffffffff80203d45:	89 de                	mov    %ebx,%esi
ffffffff80203d47:	48 8d 3d d7 03 00 00 	lea    0x3d7(%rip),%rdi        # ffffffff80204125 <_x86_64_asm_ltr+0x18d>
ffffffff80203d4e:	b8 00 00 00 00       	mov    $0x0,%eax
ffffffff80203d53:	e8 b8 e4 ff ff       	callq  ffffffff80202210 <kprintf>
ffffffff80203d58:	eb 13                	jmp    ffffffff80203d6d <probeport+0x1e9>
ffffffff80203d5a:	89 de                	mov    %ebx,%esi
ffffffff80203d5c:	48 8d 3d dd 03 00 00 	lea    0x3dd(%rip),%rdi        # ffffffff80204140 <_x86_64_asm_ltr+0x1a8>
ffffffff80203d63:	b8 00 00 00 00       	mov    $0x0,%eax
ffffffff80203d68:	e8 a3 e4 ff ff       	callq  ffffffff80202210 <kprintf>
ffffffff80203d6d:	d1 ed                	shr    %ebp
ffffffff80203d6f:	41 83 fc 1f          	cmp    $0x1f,%r12d
ffffffff80203d73:	0f 8e 2c fe ff ff    	jle    ffffffff80203ba5 <probeport+0x21>
ffffffff80203d79:	48 83 c4 18          	add    $0x18,%rsp
ffffffff80203d7d:	5b                   	pop    %rbx
ffffffff80203d7e:	5d                   	pop    %rbp
ffffffff80203d7f:	41 5c                	pop    %r12
ffffffff80203d81:	41 5d                	pop    %r13
ffffffff80203d83:	41 5e                	pop    %r14
ffffffff80203d85:	41 5f                	pop    %r15
ffffffff80203d87:	c3                   	retq   

ffffffff80203d88 <walk>:
ffffffff80203d88:	41 57                	push   %r15
ffffffff80203d8a:	41 56                	push   %r14
ffffffff80203d8c:	41 55                	push   %r13
ffffffff80203d8e:	41 54                	push   %r12
ffffffff80203d90:	55                   	push   %rbp
ffffffff80203d91:	53                   	push   %rbx
ffffffff80203d92:	48 83 ec 18          	sub    $0x18,%rsp
ffffffff80203d96:	c7 44 24 0c 00 00 00 	movl   $0x0,0xc(%rsp)
ffffffff80203d9d:	00 
ffffffff80203d9e:	4c 8d 3d ba 03 00 00 	lea    0x3ba(%rip),%r15        # ffffffff8020415f <_x86_64_asm_ltr+0x1c7>
ffffffff80203da5:	e9 02 01 00 00       	jmpq   ffffffff80203eac <walk+0x124>
ffffffff80203daa:	0f b6 eb             	movzbl %bl,%ebp
ffffffff80203dad:	b9 0a 00 00 00       	mov    $0xa,%ecx
ffffffff80203db2:	89 ea                	mov    %ebp,%edx
ffffffff80203db4:	44 89 e6             	mov    %r12d,%esi
ffffffff80203db7:	44 89 ef             	mov    %r13d,%edi
ffffffff80203dba:	e8 0e fd ff ff       	callq  ffffffff80203acd <read>
ffffffff80203dbf:	89 c2                	mov    %eax,%edx
ffffffff80203dc1:	66 c1 ea 08          	shr    $0x8,%dx
ffffffff80203dc5:	66 83 fa 01          	cmp    $0x1,%dx
ffffffff80203dc9:	0f 85 ac 00 00 00    	jne    ffffffff80203e7b <walk+0xf3>
ffffffff80203dcf:	3c 06                	cmp    $0x6,%al
ffffffff80203dd1:	0f 85 a4 00 00 00    	jne    ffffffff80203e7b <walk+0xf3>
ffffffff80203dd7:	48 8d 3d 7d 03 00 00 	lea    0x37d(%rip),%rdi        # ffffffff8020415b <_x86_64_asm_ltr+0x1c3>
ffffffff80203dde:	b8 00 00 00 00       	mov    $0x0,%eax
ffffffff80203de3:	e8 28 e4 ff ff       	callq  ffffffff80202210 <kprintf>
ffffffff80203de8:	44 89 ee             	mov    %r13d,%esi
ffffffff80203deb:	4c 89 ff             	mov    %r15,%rdi
ffffffff80203dee:	b8 00 00 00 00       	mov    $0x0,%eax
ffffffff80203df3:	e8 18 e4 ff ff       	callq  ffffffff80202210 <kprintf>
ffffffff80203df8:	48 8d 3d 65 03 00 00 	lea    0x365(%rip),%rdi        # ffffffff80204164 <_x86_64_asm_ltr+0x1cc>
ffffffff80203dff:	b8 00 00 00 00       	mov    $0x0,%eax
ffffffff80203e04:	e8 07 e4 ff ff       	callq  ffffffff80202210 <kprintf>
ffffffff80203e09:	44 89 e6             	mov    %r12d,%esi
ffffffff80203e0c:	4c 89 ff             	mov    %r15,%rdi
ffffffff80203e0f:	b8 00 00 00 00       	mov    $0x0,%eax
ffffffff80203e14:	e8 f7 e3 ff ff       	callq  ffffffff80202210 <kprintf>
ffffffff80203e19:	89 de                	mov    %ebx,%esi
ffffffff80203e1b:	48 8d 3d 49 03 00 00 	lea    0x349(%rip),%rdi        # ffffffff8020416b <_x86_64_asm_ltr+0x1d3>
ffffffff80203e22:	b8 00 00 00 00       	mov    $0x0,%eax
ffffffff80203e27:	e8 e4 e3 ff ff       	callq  ffffffff80202210 <kprintf>
ffffffff80203e2c:	b9 24 00 00 00       	mov    $0x24,%ecx
ffffffff80203e31:	89 ea                	mov    %ebp,%edx
ffffffff80203e33:	44 89 e6             	mov    %r12d,%esi
ffffffff80203e36:	44 89 ef             	mov    %r13d,%edi
ffffffff80203e39:	e8 8f fc ff ff       	callq  ffffffff80203acd <read>
ffffffff80203e3e:	66 89 44 24 0a       	mov    %ax,0xa(%rsp)
ffffffff80203e43:	b9 26 00 00 00       	mov    $0x26,%ecx
ffffffff80203e48:	89 ea                	mov    %ebp,%edx
ffffffff80203e4a:	44 89 e6             	mov    %r12d,%esi
ffffffff80203e4d:	44 89 ef             	mov    %r13d,%edi
ffffffff80203e50:	e8 78 fc ff ff       	callq  ffffffff80203acd <read>
ffffffff80203e55:	89 c5                	mov    %eax,%ebp
ffffffff80203e57:	c1 e5 10             	shl    $0x10,%ebp
ffffffff80203e5a:	0f b7 54 24 0a       	movzwl 0xa(%rsp),%edx
ffffffff80203e5f:	09 d5                	or     %edx,%ebp
ffffffff80203e61:	89 ee                	mov    %ebp,%esi
ffffffff80203e63:	48 8d 3d 0e 03 00 00 	lea    0x30e(%rip),%rdi        # ffffffff80204178 <_x86_64_asm_ltr+0x1e0>
ffffffff80203e6a:	b8 00 00 00 00       	mov    $0x0,%eax
ffffffff80203e6f:	e8 9c e3 ff ff       	callq  ffffffff80202210 <kprintf>
ffffffff80203e74:	89 ef                	mov    %ebp,%edi
ffffffff80203e76:	e8 09 fd ff ff       	callq  ffffffff80203b84 <probeport>
ffffffff80203e7b:	ff c3                	inc    %ebx
ffffffff80203e7d:	83 fb 08             	cmp    $0x8,%ebx
ffffffff80203e80:	0f 85 24 ff ff ff    	jne    ffffffff80203daa <walk+0x22>
ffffffff80203e86:	41 ff c6             	inc    %r14d
ffffffff80203e89:	41 83 fe 20          	cmp    $0x20,%r14d
ffffffff80203e8d:	74 0e                	je     ffffffff80203e9d <walk+0x115>
ffffffff80203e8f:	bb 00 00 00 00       	mov    $0x0,%ebx
ffffffff80203e94:	45 0f b6 e6          	movzbl %r14b,%r12d
ffffffff80203e98:	e9 0d ff ff ff       	jmpq   ffffffff80203daa <walk+0x22>
ffffffff80203e9d:	ff 44 24 0c          	incl   0xc(%rsp)
ffffffff80203ea1:	8b 44 24 0c          	mov    0xc(%rsp),%eax
ffffffff80203ea5:	3d fe 00 00 00       	cmp    $0xfe,%eax
ffffffff80203eaa:	74 0e                	je     ffffffff80203eba <walk+0x132>
ffffffff80203eac:	41 be 00 00 00 00    	mov    $0x0,%r14d
ffffffff80203eb2:	44 0f b6 6c 24 0c    	movzbl 0xc(%rsp),%r13d
ffffffff80203eb8:	eb d5                	jmp    ffffffff80203e8f <walk+0x107>
ffffffff80203eba:	48 83 c4 18          	add    $0x18,%rsp
ffffffff80203ebe:	5b                   	pop    %rbx
ffffffff80203ebf:	5d                   	pop    %rbp
ffffffff80203ec0:	41 5c                	pop    %r12
ffffffff80203ec2:	41 5d                	pop    %r13
ffffffff80203ec4:	41 5e                	pop    %r14
ffffffff80203ec6:	41 5f                	pop    %r15
ffffffff80203ec8:	c3                   	retq   

ffffffff80203ec9 <isr14>:
ffffffff80203ec9:	6a 0e                	pushq  $0xe
ffffffff80203ecb:	eb 0e                	jmp    ffffffff80203edb <syscall_routine1>

ffffffff80203ecd <syscall_routine>:
ffffffff80203ecd:	6a 00                	pushq  $0x0
ffffffff80203ecf:	68 80 00 00 00       	pushq  $0x80
ffffffff80203ed4:	eb 05                	jmp    ffffffff80203edb <syscall_routine1>

ffffffff80203ed6 <timer_routine>:
ffffffff80203ed6:	eb 34                	jmp    ffffffff80203f0c <irq_common_stub>

ffffffff80203ed8 <keyboard_routine>:
ffffffff80203ed8:	fa                   	cli    
ffffffff80203ed9:	eb 66                	jmp    ffffffff80203f41 <irq_common_stub1>

ffffffff80203edb <syscall_routine1>:
ffffffff80203edb:	eb 03                	jmp    ffffffff80203ee0 <irq_common_stub2>

ffffffff80203edd <read_rip>:
ffffffff80203edd:	58                   	pop    %rax
ffffffff80203ede:	ff e0                	jmpq   *%rax

ffffffff80203ee0 <irq_common_stub2>:
ffffffff80203ee0:	48 89 24 25 c8 72 20 	mov    %rsp,0xffffffff802072c8
ffffffff80203ee7:	80 
ffffffff80203ee8:	57                   	push   %rdi
ffffffff80203ee9:	50                   	push   %rax
ffffffff80203eea:	53                   	push   %rbx
ffffffff80203eeb:	51                   	push   %rcx
ffffffff80203eec:	52                   	push   %rdx
ffffffff80203eed:	55                   	push   %rbp
ffffffff80203eee:	56                   	push   %rsi
ffffffff80203eef:	41 50                	push   %r8
ffffffff80203ef1:	41 51                	push   %r9
ffffffff80203ef3:	48 89 e7             	mov    %rsp,%rdi
ffffffff80203ef6:	e8 dc d9 ff ff       	callq  ffffffff802018d7 <irq_handler2>
ffffffff80203efb:	41 59                	pop    %r9
ffffffff80203efd:	41 58                	pop    %r8
ffffffff80203eff:	5e                   	pop    %rsi
ffffffff80203f00:	5d                   	pop    %rbp
ffffffff80203f01:	5a                   	pop    %rdx
ffffffff80203f02:	59                   	pop    %rcx
ffffffff80203f03:	5b                   	pop    %rbx
ffffffff80203f04:	58                   	pop    %rax
ffffffff80203f05:	5f                   	pop    %rdi
ffffffff80203f06:	48 83 c4 10          	add    $0x10,%rsp
ffffffff80203f0a:	48 cf                	iretq  

ffffffff80203f0c <irq_common_stub>:
ffffffff80203f0c:	50                   	push   %rax
ffffffff80203f0d:	53                   	push   %rbx
ffffffff80203f0e:	51                   	push   %rcx
ffffffff80203f0f:	52                   	push   %rdx
ffffffff80203f10:	56                   	push   %rsi
ffffffff80203f11:	57                   	push   %rdi
ffffffff80203f12:	55                   	push   %rbp
ffffffff80203f13:	41 50                	push   %r8
ffffffff80203f15:	41 51                	push   %r9
ffffffff80203f17:	41 52                	push   %r10
ffffffff80203f19:	41 53                	push   %r11
ffffffff80203f1b:	41 54                	push   %r12
ffffffff80203f1d:	41 55                	push   %r13
ffffffff80203f1f:	41 56                	push   %r14
ffffffff80203f21:	41 57                	push   %r15
ffffffff80203f23:	e8 70 d9 ff ff       	callq  ffffffff80201898 <irq_handler>
ffffffff80203f28:	41 5f                	pop    %r15
ffffffff80203f2a:	41 5e                	pop    %r14
ffffffff80203f2c:	41 5d                	pop    %r13
ffffffff80203f2e:	41 5c                	pop    %r12
ffffffff80203f30:	41 5b                	pop    %r11
ffffffff80203f32:	41 5a                	pop    %r10
ffffffff80203f34:	41 59                	pop    %r9
ffffffff80203f36:	41 58                	pop    %r8
ffffffff80203f38:	5d                   	pop    %rbp
ffffffff80203f39:	5f                   	pop    %rdi
ffffffff80203f3a:	5e                   	pop    %rsi
ffffffff80203f3b:	5a                   	pop    %rdx
ffffffff80203f3c:	59                   	pop    %rcx
ffffffff80203f3d:	5b                   	pop    %rbx
ffffffff80203f3e:	58                   	pop    %rax
ffffffff80203f3f:	48 cf                	iretq  

ffffffff80203f41 <irq_common_stub1>:
ffffffff80203f41:	50                   	push   %rax
ffffffff80203f42:	53                   	push   %rbx
ffffffff80203f43:	51                   	push   %rcx
ffffffff80203f44:	52                   	push   %rdx
ffffffff80203f45:	56                   	push   %rsi
ffffffff80203f46:	57                   	push   %rdi
ffffffff80203f47:	55                   	push   %rbp
ffffffff80203f48:	41 50                	push   %r8
ffffffff80203f4a:	41 51                	push   %r9
ffffffff80203f4c:	41 52                	push   %r10
ffffffff80203f4e:	41 53                	push   %r11
ffffffff80203f50:	41 54                	push   %r12
ffffffff80203f52:	41 55                	push   %r13
ffffffff80203f54:	41 56                	push   %r14
ffffffff80203f56:	41 57                	push   %r15
ffffffff80203f58:	e8 3e da ff ff       	callq  ffffffff8020199b <irq_handler1>
ffffffff80203f5d:	41 5f                	pop    %r15
ffffffff80203f5f:	41 5e                	pop    %r14
ffffffff80203f61:	41 5d                	pop    %r13
ffffffff80203f63:	41 5c                	pop    %r12
ffffffff80203f65:	41 5b                	pop    %r11
ffffffff80203f67:	41 5a                	pop    %r10
ffffffff80203f69:	41 59                	pop    %r9
ffffffff80203f6b:	41 58                	pop    %r8
ffffffff80203f6d:	5d                   	pop    %rbp
ffffffff80203f6e:	5f                   	pop    %rdi
ffffffff80203f6f:	5e                   	pop    %rsi
ffffffff80203f70:	5a                   	pop    %rdx
ffffffff80203f71:	59                   	pop    %rcx
ffffffff80203f72:	5b                   	pop    %rbx
ffffffff80203f73:	58                   	pop    %rax
ffffffff80203f74:	48 cf                	iretq  

ffffffff80203f76 <_x86_64_asm_lgdt>:
ffffffff80203f76:	0f 01 17             	lgdt   (%rdi)
ffffffff80203f79:	56                   	push   %rsi
ffffffff80203f7a:	49 ba 88 3f 20 80 ff 	movabs $0xffffffff80203f88,%r10
ffffffff80203f81:	ff ff ff 
ffffffff80203f84:	41 52                	push   %r10
ffffffff80203f86:	48 cb                	lretq  

ffffffff80203f88 <.done>:
ffffffff80203f88:	48 8e c2             	mov    %rdx,%es
ffffffff80203f8b:	48 8e e2             	mov    %rdx,%fs
ffffffff80203f8e:	48 8e ea             	mov    %rdx,%gs
ffffffff80203f91:	48 8e da             	mov    %rdx,%ds
ffffffff80203f94:	48 8e d2             	mov    %rdx,%ss
ffffffff80203f97:	c3                   	retq   

ffffffff80203f98 <_x86_64_asm_ltr>:
ffffffff80203f98:	0f 00 df             	ltr    %di
ffffffff80203f9b:	c3                   	retq   
